
NCS36510/SmartLAB8.0.elf:     file format elf32-littlearm
architecture: arm, flags 0x00000112:
EXEC_P, HAS_SYMS, D_PAGED
start address 0x0010deb5


Disassembly of section .text:

00102090 <deregister_tm_clones>:
  102090:	4b04      	ldr	r3, [pc, #16]	; (1020a4 <deregister_tm_clones+0x14>)
  102092:	4805      	ldr	r0, [pc, #20]	; (1020a8 <deregister_tm_clones+0x18>)
  102094:	1a1b      	subs	r3, r3, r0
  102096:	2b06      	cmp	r3, #6
  102098:	d902      	bls.n	1020a0 <deregister_tm_clones+0x10>
  10209a:	4b04      	ldr	r3, [pc, #16]	; (1020ac <deregister_tm_clones+0x1c>)
  10209c:	b103      	cbz	r3, 1020a0 <deregister_tm_clones+0x10>
  10209e:	4718      	bx	r3
  1020a0:	4770      	bx	lr
  1020a2:	bf00      	nop
  1020a4:	3fff42e3 	.word	0x3fff42e3
  1020a8:	3fff42e0 	.word	0x3fff42e0
  1020ac:	00000000 	.word	0x00000000

001020b0 <register_tm_clones>:
  1020b0:	4905      	ldr	r1, [pc, #20]	; (1020c8 <register_tm_clones+0x18>)
  1020b2:	4806      	ldr	r0, [pc, #24]	; (1020cc <register_tm_clones+0x1c>)
  1020b4:	1a09      	subs	r1, r1, r0
  1020b6:	1089      	asrs	r1, r1, #2
  1020b8:	eb01 71d1 	add.w	r1, r1, r1, lsr #31
  1020bc:	1049      	asrs	r1, r1, #1
  1020be:	d002      	beq.n	1020c6 <register_tm_clones+0x16>
  1020c0:	4b03      	ldr	r3, [pc, #12]	; (1020d0 <register_tm_clones+0x20>)
  1020c2:	b103      	cbz	r3, 1020c6 <register_tm_clones+0x16>
  1020c4:	4718      	bx	r3
  1020c6:	4770      	bx	lr
  1020c8:	3fff42e0 	.word	0x3fff42e0
  1020cc:	3fff42e0 	.word	0x3fff42e0
  1020d0:	00000000 	.word	0x00000000

001020d4 <__do_global_dtors_aux>:
  1020d4:	b510      	push	{r4, lr}
  1020d6:	4c06      	ldr	r4, [pc, #24]	; (1020f0 <__do_global_dtors_aux+0x1c>)
  1020d8:	7823      	ldrb	r3, [r4, #0]
  1020da:	b943      	cbnz	r3, 1020ee <__do_global_dtors_aux+0x1a>
  1020dc:	f7ff ffd8 	bl	102090 <deregister_tm_clones>
  1020e0:	4b04      	ldr	r3, [pc, #16]	; (1020f4 <__do_global_dtors_aux+0x20>)
  1020e2:	b113      	cbz	r3, 1020ea <__do_global_dtors_aux+0x16>
  1020e4:	4804      	ldr	r0, [pc, #16]	; (1020f8 <__do_global_dtors_aux+0x24>)
  1020e6:	f3af 8000 	nop.w
  1020ea:	2301      	movs	r3, #1
  1020ec:	7023      	strb	r3, [r4, #0]
  1020ee:	bd10      	pop	{r4, pc}
  1020f0:	3fff42e0 	.word	0x3fff42e0
  1020f4:	00000000 	.word	0x00000000
  1020f8:	0011a458 	.word	0x0011a458

001020fc <frame_dummy>:
  1020fc:	b508      	push	{r3, lr}
  1020fe:	4b08      	ldr	r3, [pc, #32]	; (102120 <frame_dummy+0x24>)
  102100:	b11b      	cbz	r3, 10210a <frame_dummy+0xe>
  102102:	4908      	ldr	r1, [pc, #32]	; (102124 <frame_dummy+0x28>)
  102104:	4808      	ldr	r0, [pc, #32]	; (102128 <frame_dummy+0x2c>)
  102106:	f3af 8000 	nop.w
  10210a:	4808      	ldr	r0, [pc, #32]	; (10212c <frame_dummy+0x30>)
  10210c:	6803      	ldr	r3, [r0, #0]
  10210e:	b913      	cbnz	r3, 102116 <frame_dummy+0x1a>
  102110:	e8bd 4008 	ldmia.w	sp!, {r3, lr}
  102114:	e7cc      	b.n	1020b0 <register_tm_clones>
  102116:	4b06      	ldr	r3, [pc, #24]	; (102130 <frame_dummy+0x34>)
  102118:	2b00      	cmp	r3, #0
  10211a:	d0f9      	beq.n	102110 <frame_dummy+0x14>
  10211c:	4798      	blx	r3
  10211e:	e7f7      	b.n	102110 <frame_dummy+0x14>
  102120:	00000000 	.word	0x00000000
  102124:	3fff42e4 	.word	0x3fff42e4
  102128:	0011a458 	.word	0x0011a458
  10212c:	3fff42e0 	.word	0x3fff42e0
  102130:	00000000 	.word	0x00000000

00102134 <__tcf_0>:
  102134:	b538      	push	{r3, r4, r5, lr}
  102136:	4d06      	ldr	r5, [pc, #24]	; (102150 <__tcf_0+0x1c>)
  102138:	2400      	movs	r4, #0
  10213a:	f504 70b4 	add.w	r0, r4, #360	; 0x168
  10213e:	4428      	add	r0, r5
  102140:	3c18      	subs	r4, #24
  102142:	f00b ffb5 	bl	10e0b0 <std::__cxx11::basic_string<char, std::char_traits<char>, std::allocator<char> >::_M_dispose()>
  102146:	f514 7fc0 	cmn.w	r4, #384	; 0x180
  10214a:	d1f6      	bne.n	10213a <__tcf_0+0x6>
  10214c:	bd38      	pop	{r3, r4, r5, pc}
  10214e:	bf00      	nop
  102150:	3fff42fc 	.word	0x3fff42fc

00102154 <std::__cxx11::basic_string<char, std::char_traits<char>, std::allocator<char> >::basic_string(char const*, std::allocator<char> const&) [clone .isra.14] [clone .constprop.16]>:
  102154:	b510      	push	{r4, lr}
  102156:	4604      	mov	r4, r0
  102158:	4a05      	ldr	r2, [pc, #20]	; (102170 <std::__cxx11::basic_string<char, std::char_traits<char>, std::allocator<char> >::basic_string(char const*, std::allocator<char> const&) [clone .isra.14] [clone .constprop.16]+0x1c>)
  10215a:	3008      	adds	r0, #8
  10215c:	6020      	str	r0, [r4, #0]
  10215e:	4611      	mov	r1, r2
  102160:	f00b ffbc 	bl	10e0dc <std::__cxx11::basic_string<char, std::char_traits<char>, std::allocator<char> >::_S_copy_chars(char*, char const*, char const*)>
  102164:	6822      	ldr	r2, [r4, #0]
  102166:	2300      	movs	r3, #0
  102168:	6063      	str	r3, [r4, #4]
  10216a:	7013      	strb	r3, [r2, #0]
  10216c:	4620      	mov	r0, r4
  10216e:	bd10      	pop	{r4, pc}
  102170:	001164ed 	.word	0x001164ed

00102174 <FillIDS(unsigned long*, char**)>:
  102174:	4b0c      	ldr	r3, [pc, #48]	; (1021a8 <FillIDS(unsigned long*, char**)+0x34>)
  102176:	681b      	ldr	r3, [r3, #0]
  102178:	6003      	str	r3, [r0, #0]
  10217a:	4b0c      	ldr	r3, [pc, #48]	; (1021ac <FillIDS(unsigned long*, char**)+0x38>)
  10217c:	681b      	ldr	r3, [r3, #0]
  10217e:	6043      	str	r3, [r0, #4]
  102180:	4b0b      	ldr	r3, [pc, #44]	; (1021b0 <FillIDS(unsigned long*, char**)+0x3c>)
  102182:	681b      	ldr	r3, [r3, #0]
  102184:	6083      	str	r3, [r0, #8]
  102186:	4b0b      	ldr	r3, [pc, #44]	; (1021b4 <FillIDS(unsigned long*, char**)+0x40>)
  102188:	681b      	ldr	r3, [r3, #0]
  10218a:	60c3      	str	r3, [r0, #12]
  10218c:	4b0a      	ldr	r3, [pc, #40]	; (1021b8 <FillIDS(unsigned long*, char**)+0x44>)
  10218e:	681b      	ldr	r3, [r3, #0]
  102190:	600b      	str	r3, [r1, #0]
  102192:	4b0a      	ldr	r3, [pc, #40]	; (1021bc <FillIDS(unsigned long*, char**)+0x48>)
  102194:	681b      	ldr	r3, [r3, #0]
  102196:	604b      	str	r3, [r1, #4]
  102198:	4b09      	ldr	r3, [pc, #36]	; (1021c0 <FillIDS(unsigned long*, char**)+0x4c>)
  10219a:	681b      	ldr	r3, [r3, #0]
  10219c:	608b      	str	r3, [r1, #8]
  10219e:	4b09      	ldr	r3, [pc, #36]	; (1021c4 <FillIDS(unsigned long*, char**)+0x50>)
  1021a0:	681b      	ldr	r3, [r3, #0]
  1021a2:	60cb      	str	r3, [r1, #12]
  1021a4:	4770      	bx	lr
  1021a6:	bf00      	nop
  1021a8:	3fff40b4 	.word	0x3fff40b4
  1021ac:	3fff40b8 	.word	0x3fff40b8
  1021b0:	3fff40bc 	.word	0x3fff40bc
  1021b4:	3fff40c0 	.word	0x3fff40c0
  1021b8:	3fff40a4 	.word	0x3fff40a4
  1021bc:	3fff40a8 	.word	0x3fff40a8
  1021c0:	3fff40ac 	.word	0x3fff40ac
  1021c4:	3fff40b0 	.word	0x3fff40b0

001021c8 <_GLOBAL__sub_I_TOUCH_LC717A00_mode>:
  1021c8:	b510      	push	{r4, lr}
  1021ca:	482b      	ldr	r0, [pc, #172]	; (102278 <_GLOBAL__sub_I_TOUCH_LC717A00_mode+0xb0>)
  1021cc:	f7ff ffc2 	bl	102154 <std::__cxx11::basic_string<char, std::char_traits<char>, std::allocator<char> >::basic_string(char const*, std::allocator<char> const&) [clone .isra.14] [clone .constprop.16]>
  1021d0:	4a2a      	ldr	r2, [pc, #168]	; (10227c <_GLOBAL__sub_I_TOUCH_LC717A00_mode+0xb4>)
  1021d2:	492b      	ldr	r1, [pc, #172]	; (102280 <_GLOBAL__sub_I_TOUCH_LC717A00_mode+0xb8>)
  1021d4:	4828      	ldr	r0, [pc, #160]	; (102278 <_GLOBAL__sub_I_TOUCH_LC717A00_mode+0xb0>)
  1021d6:	f00b fa7e 	bl	10d6d6 <__aeabi_atexit>
  1021da:	4b2a      	ldr	r3, [pc, #168]	; (102284 <_GLOBAL__sub_I_TOUCH_LC717A00_mode+0xbc>)
  1021dc:	2200      	movs	r2, #0
  1021de:	f503 70c0 	add.w	r0, r3, #384	; 0x180
  1021e2:	4619      	mov	r1, r3
  1021e4:	f843 2c04 	str.w	r2, [r3, #-4]
  1021e8:	f843 3c08 	str.w	r3, [r3, #-8]
  1021ec:	f801 2b18 	strb.w	r2, [r1], #24
  1021f0:	6119      	str	r1, [r3, #16]
  1021f2:	615a      	str	r2, [r3, #20]
  1021f4:	761a      	strb	r2, [r3, #24]
  1021f6:	3330      	adds	r3, #48	; 0x30
  1021f8:	4283      	cmp	r3, r0
  1021fa:	f04f 0400 	mov.w	r4, #0
  1021fe:	d1f0      	bne.n	1021e2 <_GLOBAL__sub_I_TOUCH_LC717A00_mode+0x1a>
  102200:	4a1e      	ldr	r2, [pc, #120]	; (10227c <_GLOBAL__sub_I_TOUCH_LC717A00_mode+0xb4>)
  102202:	4921      	ldr	r1, [pc, #132]	; (102288 <_GLOBAL__sub_I_TOUCH_LC717A00_mode+0xc0>)
  102204:	4620      	mov	r0, r4
  102206:	f00b fa66 	bl	10d6d6 <__aeabi_atexit>
  10220a:	4820      	ldr	r0, [pc, #128]	; (10228c <_GLOBAL__sub_I_TOUCH_LC717A00_mode+0xc4>)
  10220c:	f7ff ffa2 	bl	102154 <std::__cxx11::basic_string<char, std::char_traits<char>, std::allocator<char> >::basic_string(char const*, std::allocator<char> const&) [clone .isra.14] [clone .constprop.16]>
  102210:	4a1a      	ldr	r2, [pc, #104]	; (10227c <_GLOBAL__sub_I_TOUCH_LC717A00_mode+0xb4>)
  102212:	491b      	ldr	r1, [pc, #108]	; (102280 <_GLOBAL__sub_I_TOUCH_LC717A00_mode+0xb8>)
  102214:	481d      	ldr	r0, [pc, #116]	; (10228c <_GLOBAL__sub_I_TOUCH_LC717A00_mode+0xc4>)
  102216:	f00b fa5e 	bl	10d6d6 <__aeabi_atexit>
  10221a:	481d      	ldr	r0, [pc, #116]	; (102290 <_GLOBAL__sub_I_TOUCH_LC717A00_mode+0xc8>)
  10221c:	f7ff ff9a 	bl	102154 <std::__cxx11::basic_string<char, std::char_traits<char>, std::allocator<char> >::basic_string(char const*, std::allocator<char> const&) [clone .isra.14] [clone .constprop.16]>
  102220:	4a16      	ldr	r2, [pc, #88]	; (10227c <_GLOBAL__sub_I_TOUCH_LC717A00_mode+0xb4>)
  102222:	4917      	ldr	r1, [pc, #92]	; (102280 <_GLOBAL__sub_I_TOUCH_LC717A00_mode+0xb8>)
  102224:	481a      	ldr	r0, [pc, #104]	; (102290 <_GLOBAL__sub_I_TOUCH_LC717A00_mode+0xc8>)
  102226:	f00b fa56 	bl	10d6d6 <__aeabi_atexit>
  10222a:	481a      	ldr	r0, [pc, #104]	; (102294 <_GLOBAL__sub_I_TOUCH_LC717A00_mode+0xcc>)
  10222c:	f7ff ff92 	bl	102154 <std::__cxx11::basic_string<char, std::char_traits<char>, std::allocator<char> >::basic_string(char const*, std::allocator<char> const&) [clone .isra.14] [clone .constprop.16]>
  102230:	4a12      	ldr	r2, [pc, #72]	; (10227c <_GLOBAL__sub_I_TOUCH_LC717A00_mode+0xb4>)
  102232:	4913      	ldr	r1, [pc, #76]	; (102280 <_GLOBAL__sub_I_TOUCH_LC717A00_mode+0xb8>)
  102234:	4817      	ldr	r0, [pc, #92]	; (102294 <_GLOBAL__sub_I_TOUCH_LC717A00_mode+0xcc>)
  102236:	f00b fa4e 	bl	10d6d6 <__aeabi_atexit>
  10223a:	4817      	ldr	r0, [pc, #92]	; (102298 <_GLOBAL__sub_I_TOUCH_LC717A00_mode+0xd0>)
  10223c:	f00b fc4e 	bl	10dadc <rtos::Mutex::Mutex()>
  102240:	4a0e      	ldr	r2, [pc, #56]	; (10227c <_GLOBAL__sub_I_TOUCH_LC717A00_mode+0xb4>)
  102242:	4916      	ldr	r1, [pc, #88]	; (10229c <_GLOBAL__sub_I_TOUCH_LC717A00_mode+0xd4>)
  102244:	4814      	ldr	r0, [pc, #80]	; (102298 <_GLOBAL__sub_I_TOUCH_LC717A00_mode+0xd0>)
  102246:	f00b fa46 	bl	10d6d6 <__aeabi_atexit>
  10224a:	4815      	ldr	r0, [pc, #84]	; (1022a0 <_GLOBAL__sub_I_TOUCH_LC717A00_mode+0xd8>)
  10224c:	2107      	movs	r1, #7
  10224e:	6004      	str	r4, [r0, #0]
  102250:	7104      	strb	r4, [r0, #4]
  102252:	6084      	str	r4, [r0, #8]
  102254:	f006 f980 	bl	108558 <gpio_init_out>
  102258:	4812      	ldr	r0, [pc, #72]	; (1022a4 <_GLOBAL__sub_I_TOUCH_LC717A00_mode+0xdc>)
  10225a:	2110      	movs	r1, #16
  10225c:	6004      	str	r4, [r0, #0]
  10225e:	7104      	strb	r4, [r0, #4]
  102260:	6084      	str	r4, [r0, #8]
  102262:	f006 f979 	bl	108558 <gpio_init_out>
  102266:	4810      	ldr	r0, [pc, #64]	; (1022a8 <_GLOBAL__sub_I_TOUCH_LC717A00_mode+0xe0>)
  102268:	210e      	movs	r1, #14
  10226a:	6004      	str	r4, [r0, #0]
  10226c:	7104      	strb	r4, [r0, #4]
  10226e:	6084      	str	r4, [r0, #8]
  102270:	e8bd 4010 	ldmia.w	sp!, {r4, lr}
  102274:	f006 b970 	b.w	108558 <gpio_init_out>
  102278:	3fff447c 	.word	0x3fff447c
  10227c:	3fff40a0 	.word	0x3fff40a0
  102280:	0010e1e5 	.word	0x0010e1e5
  102284:	3fff4304 	.word	0x3fff4304
  102288:	00102135 	.word	0x00102135
  10228c:	3fff44b8 	.word	0x3fff44b8
  102290:	3fff4494 	.word	0x3fff4494
  102294:	3fff451c 	.word	0x3fff451c
  102298:	3fff44ec 	.word	0x3fff44ec
  10229c:	0010daf7 	.word	0x0010daf7
  1022a0:	3fff44ac 	.word	0x3fff44ac
  1022a4:	3fff44e0 	.word	0x3fff44e0
  1022a8:	3fff44d0 	.word	0x3fff44d0

001022ac <HttpParser::on_message_begin_callback(http_parser*)>:
  1022ac:	2000      	movs	r0, #0
  1022ae:	4770      	bx	lr

001022b0 <HttpParser::on_message_complete_callback(http_parser*)>:
  1022b0:	6983      	ldr	r3, [r0, #24]
  1022b2:	2201      	movs	r2, #1
  1022b4:	681b      	ldr	r3, [r3, #0]
  1022b6:	2000      	movs	r0, #0
  1022b8:	f883 2059 	strb.w	r2, [r3, #89]	; 0x59
  1022bc:	4770      	bx	lr

001022be <HttpParser::on_chunk_header_callback(http_parser*)>:
  1022be:	6983      	ldr	r3, [r0, #24]
  1022c0:	2201      	movs	r2, #1
  1022c2:	681b      	ldr	r3, [r3, #0]
  1022c4:	2000      	movs	r0, #0
  1022c6:	f883 2058 	strb.w	r2, [r3, #88]	; 0x58
  1022ca:	4770      	bx	lr

001022cc <HttpParser::on_chunk_complete_callback(http_parser*)>:
  1022cc:	2000      	movs	r0, #0
  1022ce:	4770      	bx	lr

001022d0 <interrupt()>:
  1022d0:	4b01      	ldr	r3, [pc, #4]	; (1022d8 <interrupt()+0x8>)
  1022d2:	2201      	movs	r2, #1
  1022d4:	601a      	str	r2, [r3, #0]
  1022d6:	4770      	bx	lr
  1022d8:	3fff8244 	.word	0x3fff8244

001022dc <void mbed::Callback<void ()>::function_call<void (*)()>(void const*)>:
  1022dc:	6803      	ldr	r3, [r0, #0]
  1022de:	4718      	bx	r3

001022e0 <void mbed::Callback<void ()>::function_move<void (*)()>(void*, void const*)>:
  1022e0:	b108      	cbz	r0, 1022e6 <void mbed::Callback<void ()>::function_move<void (*)()>(void*, void const*)+0x6>
  1022e2:	680b      	ldr	r3, [r1, #0]
  1022e4:	6003      	str	r3, [r0, #0]
  1022e6:	4770      	bx	lr

001022e8 <void mbed::Callback<void ()>::function_dtor<void (*)()>(void*)>:
  1022e8:	4770      	bx	lr
	...

001022ec <__tcf_0>:
  1022ec:	b538      	push	{r3, r4, r5, lr}
  1022ee:	4d06      	ldr	r5, [pc, #24]	; (102308 <__tcf_0+0x1c>)
  1022f0:	2400      	movs	r4, #0
  1022f2:	f504 70b4 	add.w	r0, r4, #360	; 0x168
  1022f6:	4428      	add	r0, r5
  1022f8:	3c18      	subs	r4, #24
  1022fa:	f00b fed9 	bl	10e0b0 <std::__cxx11::basic_string<char, std::char_traits<char>, std::allocator<char> >::_M_dispose()>
  1022fe:	f514 7fc0 	cmn.w	r4, #384	; 0x180
  102302:	d1f6      	bne.n	1022f2 <__tcf_0+0x6>
  102304:	bd38      	pop	{r3, r4, r5, pc}
  102306:	bf00      	nop
  102308:	3fff45d0 	.word	0x3fff45d0

0010230c <NRF24L01P::~NRF24L01P()>:
  10230c:	4770      	bx	lr
	...

00102310 <pir_routine()>:
  102310:	b508      	push	{r3, lr}
  102312:	4904      	ldr	r1, [pc, #16]	; (102324 <pir_routine()+0x14>)
  102314:	4804      	ldr	r0, [pc, #16]	; (102328 <pir_routine()+0x18>)
  102316:	f00b fb95 	bl	10da44 <mbed::Stream::printf(char const*, ...)>
  10231a:	4b04      	ldr	r3, [pc, #16]	; (10232c <pir_routine()+0x1c>)
  10231c:	2201      	movs	r2, #1
  10231e:	601a      	str	r2, [r3, #0]
  102320:	bd08      	pop	{r3, pc}
  102322:	bf00      	nop
  102324:	00116000 	.word	0x00116000
  102328:	3fff8184 	.word	0x3fff8184
  10232c:	3fff8260 	.word	0x3fff8260

00102330 <NHD_C0216CZ::~NHD_C0216CZ()>:
  102330:	b510      	push	{r4, lr}
  102332:	4604      	mov	r4, r0
  102334:	3040      	adds	r0, #64	; 0x40
  102336:	f005 fc99 	bl	107c6c <PCA9655E::~PCA9655E()>
  10233a:	4620      	mov	r0, r4
  10233c:	bd10      	pop	{r4, pc}
	...

00102340 <void std::__cxx11::basic_string<char, std::char_traits<char>, std::allocator<char> >::_M_construct<char const*>(char const*, char const*, std::forward_iterator_tag) [clone .isra.52]>:
  102340:	b573      	push	{r0, r1, r4, r5, r6, lr}
  102342:	4604      	mov	r4, r0
  102344:	4616      	mov	r6, r2
  102346:	460d      	mov	r5, r1
  102348:	b901      	cbnz	r1, 10234c <void std::__cxx11::basic_string<char, std::char_traits<char>, std::allocator<char> >::_M_construct<char const*>(char const*, char const*, std::forward_iterator_tag) [clone .isra.52]+0xc>
  10234a:	b9ba      	cbnz	r2, 10237c <void std::__cxx11::basic_string<char, std::char_traits<char>, std::allocator<char> >::_M_construct<char const*>(char const*, char const*, std::forward_iterator_tag) [clone .isra.52]+0x3c>
  10234c:	1b73      	subs	r3, r6, r5
  10234e:	2b0f      	cmp	r3, #15
  102350:	9301      	str	r3, [sp, #4]
  102352:	d907      	bls.n	102364 <void std::__cxx11::basic_string<char, std::char_traits<char>, std::allocator<char> >::_M_construct<char const*>(char const*, char const*, std::forward_iterator_tag) [clone .isra.52]+0x24>
  102354:	2200      	movs	r2, #0
  102356:	a901      	add	r1, sp, #4
  102358:	4620      	mov	r0, r4
  10235a:	f00b fe8d 	bl	10e078 <std::__cxx11::basic_string<char, std::char_traits<char>, std::allocator<char> >::_M_create(unsigned int&, unsigned int)>
  10235e:	9b01      	ldr	r3, [sp, #4]
  102360:	6020      	str	r0, [r4, #0]
  102362:	60a3      	str	r3, [r4, #8]
  102364:	4632      	mov	r2, r6
  102366:	4629      	mov	r1, r5
  102368:	6820      	ldr	r0, [r4, #0]
  10236a:	f00b feb7 	bl	10e0dc <std::__cxx11::basic_string<char, std::char_traits<char>, std::allocator<char> >::_S_copy_chars(char*, char const*, char const*)>
  10236e:	9b01      	ldr	r3, [sp, #4]
  102370:	6822      	ldr	r2, [r4, #0]
  102372:	2100      	movs	r1, #0
  102374:	6063      	str	r3, [r4, #4]
  102376:	54d1      	strb	r1, [r2, r3]
  102378:	b002      	add	sp, #8
  10237a:	bd70      	pop	{r4, r5, r6, pc}
  10237c:	4801      	ldr	r0, [pc, #4]	; (102384 <void std::__cxx11::basic_string<char, std::char_traits<char>, std::allocator<char> >::_M_construct<char const*>(char const*, char const*, std::forward_iterator_tag) [clone .isra.52]+0x44>)
  10237e:	f00b fe6c 	bl	10e05a <std::__throw_logic_error(char const*)>
  102382:	bf00      	nop
  102384:	00116014 	.word	0x00116014

00102388 <std::__cxx11::basic_string<char, std::char_traits<char>, std::allocator<char> >::basic_string(char const*, std::allocator<char> const&) [clone .isra.54]>:
  102388:	b538      	push	{r3, r4, r5, lr}
  10238a:	f100 0308 	add.w	r3, r0, #8
  10238e:	4604      	mov	r4, r0
  102390:	6003      	str	r3, [r0, #0]
  102392:	460d      	mov	r5, r1
  102394:	b121      	cbz	r1, 1023a0 <std::__cxx11::basic_string<char, std::char_traits<char>, std::allocator<char> >::basic_string(char const*, std::allocator<char> const&) [clone .isra.54]+0x18>
  102396:	4608      	mov	r0, r1
  102398:	f00f fa05 	bl	1117a6 <strlen>
  10239c:	182a      	adds	r2, r5, r0
  10239e:	e001      	b.n	1023a4 <std::__cxx11::basic_string<char, std::char_traits<char>, std::allocator<char> >::basic_string(char const*, std::allocator<char> const&) [clone .isra.54]+0x1c>
  1023a0:	f04f 32ff 	mov.w	r2, #4294967295
  1023a4:	4620      	mov	r0, r4
  1023a6:	4629      	mov	r1, r5
  1023a8:	f7ff ffca 	bl	102340 <void std::__cxx11::basic_string<char, std::char_traits<char>, std::allocator<char> >::_M_construct<char const*>(char const*, char const*, std::forward_iterator_tag) [clone .isra.52]>
  1023ac:	4620      	mov	r0, r4
  1023ae:	bd38      	pop	{r3, r4, r5, pc}

001023b0 <HttpParser::on_status_callback(http_parser*, char const*, unsigned int)>:
  1023b0:	b530      	push	{r4, r5, lr}
  1023b2:	4605      	mov	r5, r0
  1023b4:	b08d      	sub	sp, #52	; 0x34
  1023b6:	6984      	ldr	r4, [r0, #24]
  1023b8:	ab02      	add	r3, sp, #8
  1023ba:	440a      	add	r2, r1
  1023bc:	4668      	mov	r0, sp
  1023be:	9300      	str	r3, [sp, #0]
  1023c0:	f7ff ffbe 	bl	102340 <void std::__cxx11::basic_string<char, std::char_traits<char>, std::allocator<char> >::_M_construct<char const*>(char const*, char const*, std::forward_iterator_tag) [clone .isra.52]>
  1023c4:	6824      	ldr	r4, [r4, #0]
  1023c6:	4669      	mov	r1, sp
  1023c8:	a806      	add	r0, sp, #24
  1023ca:	8aad      	ldrh	r5, [r5, #20]
  1023cc:	f00b ffd6 	bl	10e37c <std::__cxx11::basic_string<char, std::char_traits<char>, std::allocator<char> >::basic_string(std::__cxx11::basic_string<char, std::char_traits<char>, std::allocator<char> > const&)>
  1023d0:	4620      	mov	r0, r4
  1023d2:	a906      	add	r1, sp, #24
  1023d4:	f840 5b04 	str.w	r5, [r0], #4
  1023d8:	f00b fe85 	bl	10e0e6 <std::__cxx11::basic_string<char, std::char_traits<char>, std::allocator<char> >::_M_assign(std::__cxx11::basic_string<char, std::char_traits<char>, std::allocator<char> > const&)>
  1023dc:	a806      	add	r0, sp, #24
  1023de:	f00b fe67 	bl	10e0b0 <std::__cxx11::basic_string<char, std::char_traits<char>, std::allocator<char> >::_M_dispose()>
  1023e2:	4668      	mov	r0, sp
  1023e4:	f00b fe64 	bl	10e0b0 <std::__cxx11::basic_string<char, std::char_traits<char>, std::allocator<char> >::_M_dispose()>
  1023e8:	2000      	movs	r0, #0
  1023ea:	b00d      	add	sp, #52	; 0x34
  1023ec:	bd30      	pop	{r4, r5, pc}

001023ee <HttpParser::on_url_callback(http_parser*, char const*, unsigned int)>:
  1023ee:	b510      	push	{r4, lr}
  1023f0:	6984      	ldr	r4, [r0, #24]
  1023f2:	b08c      	sub	sp, #48	; 0x30
  1023f4:	ab02      	add	r3, sp, #8
  1023f6:	440a      	add	r2, r1
  1023f8:	4668      	mov	r0, sp
  1023fa:	9300      	str	r3, [sp, #0]
  1023fc:	f7ff ffa0 	bl	102340 <void std::__cxx11::basic_string<char, std::char_traits<char>, std::allocator<char> >::_M_construct<char const*>(char const*, char const*, std::forward_iterator_tag) [clone .isra.52]>
  102400:	6824      	ldr	r4, [r4, #0]
  102402:	4669      	mov	r1, sp
  102404:	a806      	add	r0, sp, #24
  102406:	f00b ffb9 	bl	10e37c <std::__cxx11::basic_string<char, std::char_traits<char>, std::allocator<char> >::basic_string(std::__cxx11::basic_string<char, std::char_traits<char>, std::allocator<char> > const&)>
  10240a:	a906      	add	r1, sp, #24
  10240c:	f104 001c 	add.w	r0, r4, #28
  102410:	f00b fe69 	bl	10e0e6 <std::__cxx11::basic_string<char, std::char_traits<char>, std::allocator<char> >::_M_assign(std::__cxx11::basic_string<char, std::char_traits<char>, std::allocator<char> > const&)>
  102414:	a806      	add	r0, sp, #24
  102416:	f00b fe4b 	bl	10e0b0 <std::__cxx11::basic_string<char, std::char_traits<char>, std::allocator<char> >::_M_dispose()>
  10241a:	4668      	mov	r0, sp
  10241c:	f00b fe48 	bl	10e0b0 <std::__cxx11::basic_string<char, std::char_traits<char>, std::allocator<char> >::_M_dispose()>
  102420:	2000      	movs	r0, #0
  102422:	b00c      	add	sp, #48	; 0x30
  102424:	bd10      	pop	{r4, pc}

00102426 <mbed::DigitalOut::DigitalOut(PinName)>:
  102426:	b510      	push	{r4, lr}
  102428:	4604      	mov	r4, r0
  10242a:	2300      	movs	r3, #0
  10242c:	6003      	str	r3, [r0, #0]
  10242e:	7103      	strb	r3, [r0, #4]
  102430:	6083      	str	r3, [r0, #8]
  102432:	f006 f891 	bl	108558 <gpio_init_out>
  102436:	4620      	mov	r0, r4
  102438:	bd10      	pop	{r4, pc}

0010243a <HttpResponse::~HttpResponse()>:
  10243a:	b5f8      	push	{r3, r4, r5, r6, r7, lr}
  10243c:	4604      	mov	r4, r0
  10243e:	6dc0      	ldr	r0, [r0, #92]	; 0x5c
  102440:	b108      	cbz	r0, 102446 <HttpResponse::~HttpResponse()+0xc>
  102442:	f00d fd25 	bl	10fe90 <free>
  102446:	2500      	movs	r5, #0
  102448:	6ba2      	ldr	r2, [r4, #56]	; 0x38
  10244a:	6be3      	ldr	r3, [r4, #60]	; 0x3c
  10244c:	1a9b      	subs	r3, r3, r2
  10244e:	ebb5 0fa3 	cmp.w	r5, r3, asr #2
  102452:	d214      	bcs.n	10247e <HttpResponse::~HttpResponse()+0x44>
  102454:	f852 6025 	ldr.w	r6, [r2, r5, lsl #2]
  102458:	00af      	lsls	r7, r5, #2
  10245a:	b12e      	cbz	r6, 102468 <HttpResponse::~HttpResponse()+0x2e>
  10245c:	4630      	mov	r0, r6
  10245e:	f00b fe27 	bl	10e0b0 <std::__cxx11::basic_string<char, std::char_traits<char>, std::allocator<char> >::_M_dispose()>
  102462:	4630      	mov	r0, r6
  102464:	f00b f978 	bl	10d758 <operator delete(void*)>
  102468:	6c63      	ldr	r3, [r4, #68]	; 0x44
  10246a:	59de      	ldr	r6, [r3, r7]
  10246c:	b12e      	cbz	r6, 10247a <HttpResponse::~HttpResponse()+0x40>
  10246e:	4630      	mov	r0, r6
  102470:	f00b fe1e 	bl	10e0b0 <std::__cxx11::basic_string<char, std::char_traits<char>, std::allocator<char> >::_M_dispose()>
  102474:	4630      	mov	r0, r6
  102476:	f00b f96f 	bl	10d758 <operator delete(void*)>
  10247a:	3501      	adds	r5, #1
  10247c:	e7e4      	b.n	102448 <HttpResponse::~HttpResponse()+0xe>
  10247e:	6c60      	ldr	r0, [r4, #68]	; 0x44
  102480:	b108      	cbz	r0, 102486 <HttpResponse::~HttpResponse()+0x4c>
  102482:	f00b f969 	bl	10d758 <operator delete(void*)>
  102486:	6ba0      	ldr	r0, [r4, #56]	; 0x38
  102488:	b108      	cbz	r0, 10248e <HttpResponse::~HttpResponse()+0x54>
  10248a:	f00b f965 	bl	10d758 <operator delete(void*)>
  10248e:	f104 001c 	add.w	r0, r4, #28
  102492:	f00b fe0d 	bl	10e0b0 <std::__cxx11::basic_string<char, std::char_traits<char>, std::allocator<char> >::_M_dispose()>
  102496:	1d20      	adds	r0, r4, #4
  102498:	f00b fe0a 	bl	10e0b0 <std::__cxx11::basic_string<char, std::char_traits<char>, std::allocator<char> >::_M_dispose()>
  10249c:	4620      	mov	r0, r4
  10249e:	bdf8      	pop	{r3, r4, r5, r6, r7, pc}

001024a0 <HttpResponse::set_headers_complete()>:
  1024a0:	e92d 41f0 	stmdb	sp!, {r4, r5, r6, r7, r8, lr}
  1024a4:	4606      	mov	r6, r0
  1024a6:	6b87      	ldr	r7, [r0, #56]	; 0x38
  1024a8:	6bc3      	ldr	r3, [r0, #60]	; 0x3c
  1024aa:	2200      	movs	r2, #0
  1024ac:	1bdb      	subs	r3, r3, r7
  1024ae:	109d      	asrs	r5, r3, #2
  1024b0:	42aa      	cmp	r2, r5
  1024b2:	d02b      	beq.n	10250c <HttpResponse::set_headers_complete()+0x6c>
  1024b4:	f857 3022 	ldr.w	r3, [r7, r2, lsl #2]
  1024b8:	f8df e054 	ldr.w	lr, [pc, #84]	; 102510 <HttpResponse::set_headers_complete()+0x70>
  1024bc:	6818      	ldr	r0, [r3, #0]
  1024be:	ea4f 0c82 	mov.w	r12, r2, lsl #2
  1024c2:	3801      	subs	r0, #1
  1024c4:	f810 1f01 	ldrb.w	r1, [r0, #1]!
  1024c8:	f1a1 0341 	sub.w	r3, r1, #65	; 0x41
  1024cc:	2b19      	cmp	r3, #25
  1024ce:	bf88      	it	hi
  1024d0:	460c      	movhi	r4, r1
  1024d2:	f81e 3f01 	ldrb.w	r3, [lr, #1]!
  1024d6:	bf98      	it	ls
  1024d8:	f101 0420 	addls.w	r4, r1, #32
  1024dc:	f1a3 0841 	sub.w	r8, r3, #65	; 0x41
  1024e0:	bf98      	it	ls
  1024e2:	b2e4      	uxtbls	r4, r4
  1024e4:	f1b8 0f19 	cmp.w	r8, #25
  1024e8:	bf9c      	itt	ls
  1024ea:	3320      	addls	r3, #32
  1024ec:	b2db      	uxtbls	r3, r3
  1024ee:	42a3      	cmp	r3, r4
  1024f0:	d10a      	bne.n	102508 <HttpResponse::set_headers_complete()+0x68>
  1024f2:	2900      	cmp	r1, #0
  1024f4:	d1e6      	bne.n	1024c4 <HttpResponse::set_headers_complete()+0x24>
  1024f6:	6c73      	ldr	r3, [r6, #68]	; 0x44
  1024f8:	f853 300c 	ldr.w	r3, [r3, r12]
  1024fc:	6818      	ldr	r0, [r3, #0]
  1024fe:	f00d f967 	bl	10f7d0 <atoi>
  102502:	6570      	str	r0, [r6, #84]	; 0x54
  102504:	e8bd 81f0 	ldmia.w	sp!, {r4, r5, r6, r7, r8, pc}
  102508:	3201      	adds	r2, #1
  10250a:	e7d1      	b.n	1024b0 <HttpResponse::set_headers_complete()+0x10>
  10250c:	e8bd 81f0 	ldmia.w	sp!, {r4, r5, r6, r7, r8, pc}
  102510:	0011603d 	.word	0x0011603d

00102514 <HttpParser::on_headers_complete_callback(http_parser*)>:
  102514:	b538      	push	{r3, r4, r5, lr}
  102516:	4604      	mov	r4, r0
  102518:	6985      	ldr	r5, [r0, #24]
  10251a:	6828      	ldr	r0, [r5, #0]
  10251c:	f7ff ffc0 	bl	1024a0 <HttpResponse::set_headers_complete()>
  102520:	682b      	ldr	r3, [r5, #0]
  102522:	7da2      	ldrb	r2, [r4, #22]
  102524:	2000      	movs	r0, #0
  102526:	f883 2034 	strb.w	r2, [r3, #52]	; 0x34
  10252a:	bd38      	pop	{r3, r4, r5, pc}

0010252c <ParsedUrl::ParsedUrl(char const*)>:
  10252c:	e92d 41f0 	stmdb	sp!, {r4, r5, r6, r7, r8, lr}
  102530:	4604      	mov	r4, r0
  102532:	b088      	sub	sp, #32
  102534:	4608      	mov	r0, r1
  102536:	460f      	mov	r7, r1
  102538:	f00f f935 	bl	1117a6 <strlen>
  10253c:	466b      	mov	r3, sp
  10253e:	4601      	mov	r1, r0
  102540:	2200      	movs	r2, #0
  102542:	4638      	mov	r0, r7
  102544:	f005 f948 	bl	1077d8 <http_parser_parse_url>
  102548:	466d      	mov	r5, sp
  10254a:	2600      	movs	r6, #0
  10254c:	f8bd 3000 	ldrh.w	r3, [sp]
  102550:	4133      	asrs	r3, r6
  102552:	07db      	lsls	r3, r3, #31
  102554:	d50c      	bpl.n	102570 <ParsedUrl::ParsedUrl(char const*)+0x44>
  102556:	f8b5 8006 	ldrh.w	r8, [r5, #6]
  10255a:	2101      	movs	r1, #1
  10255c:	eb08 0001 	add.w	r0, r8, r1
  102560:	f00d f93a 	bl	10f7d8 <calloc>
  102564:	88a9      	ldrh	r1, [r5, #4]
  102566:	4642      	mov	r2, r8
  102568:	4439      	add	r1, r7
  10256a:	f00d fcb6 	bl	10feda <memcpy>
  10256e:	e003      	b.n	102578 <ParsedUrl::ParsedUrl(char const*)+0x4c>
  102570:	2101      	movs	r1, #1
  102572:	4608      	mov	r0, r1
  102574:	f00d f930 	bl	10f7d8 <calloc>
  102578:	2e06      	cmp	r6, #6
  10257a:	d80f      	bhi.n	10259c <ParsedUrl::ParsedUrl(char const*)+0x70>
  10257c:	e8df f006 	tbb	[pc, r6]
  102580:	080e0604 	.word	0x080e0604
  102584:	0e0a      	.short	0x0e0a
  102586:	0c          	.byte	0x0c
  102587:	00          	.byte	0x00
  102588:	6060      	str	r0, [r4, #4]
  10258a:	e009      	b.n	1025a0 <ParsedUrl::ParsedUrl(char const*)+0x74>
  10258c:	60a0      	str	r0, [r4, #8]
  10258e:	e007      	b.n	1025a0 <ParsedUrl::ParsedUrl(char const*)+0x74>
  102590:	60e0      	str	r0, [r4, #12]
  102592:	e005      	b.n	1025a0 <ParsedUrl::ParsedUrl(char const*)+0x74>
  102594:	6120      	str	r0, [r4, #16]
  102596:	e003      	b.n	1025a0 <ParsedUrl::ParsedUrl(char const*)+0x74>
  102598:	6160      	str	r0, [r4, #20]
  10259a:	e001      	b.n	1025a0 <ParsedUrl::ParsedUrl(char const*)+0x74>
  10259c:	f00d fc78 	bl	10fe90 <free>
  1025a0:	3601      	adds	r6, #1
  1025a2:	2e07      	cmp	r6, #7
  1025a4:	f105 0504 	add.w	r5, r5, #4
  1025a8:	d1d0      	bne.n	10254c <ParsedUrl::ParsedUrl(char const*)+0x20>
  1025aa:	f8bd 3002 	ldrh.w	r3, [sp, #2]
  1025ae:	8023      	strh	r3, [r4, #0]
  1025b0:	b94b      	cbnz	r3, 1025c6 <ParsedUrl::ParsedUrl(char const*)+0x9a>
  1025b2:	490c      	ldr	r1, [pc, #48]	; (1025e4 <ParsedUrl::ParsedUrl(char const*)+0xb8>)
  1025b4:	6860      	ldr	r0, [r4, #4]
  1025b6:	f00f f8e4 	bl	111782 <strcmp>
  1025ba:	b910      	cbnz	r0, 1025c2 <ParsedUrl::ParsedUrl(char const*)+0x96>
  1025bc:	f240 13bb 	movw	r3, #443	; 0x1bb
  1025c0:	e000      	b.n	1025c4 <ParsedUrl::ParsedUrl(char const*)+0x98>
  1025c2:	2350      	movs	r3, #80	; 0x50
  1025c4:	8023      	strh	r3, [r4, #0]
  1025c6:	68e3      	ldr	r3, [r4, #12]
  1025c8:	781b      	ldrb	r3, [r3, #0]
  1025ca:	b933      	cbnz	r3, 1025da <ParsedUrl::ParsedUrl(char const*)+0xae>
  1025cc:	2101      	movs	r1, #1
  1025ce:	2002      	movs	r0, #2
  1025d0:	f00d f902 	bl	10f7d8 <calloc>
  1025d4:	232f      	movs	r3, #47	; 0x2f
  1025d6:	60e0      	str	r0, [r4, #12]
  1025d8:	7003      	strb	r3, [r0, #0]
  1025da:	4620      	mov	r0, r4
  1025dc:	b008      	add	sp, #32
  1025de:	e8bd 81f0 	ldmia.w	sp!, {r4, r5, r6, r7, r8, pc}
  1025e2:	bf00      	nop
  1025e4:	0011604d 	.word	0x0011604d

001025e8 <mbed::Callback<void ()>::~Callback()>:
  1025e8:	68c3      	ldr	r3, [r0, #12]
  1025ea:	b510      	push	{r4, lr}
  1025ec:	4604      	mov	r4, r0
  1025ee:	b10b      	cbz	r3, 1025f4 <mbed::Callback<void ()>::~Callback()+0xc>
  1025f0:	689b      	ldr	r3, [r3, #8]
  1025f2:	4798      	blx	r3
  1025f4:	4620      	mov	r0, r4
  1025f6:	bd10      	pop	{r4, pc}

001025f8 <mbed::Ticker::~Ticker()>:
  1025f8:	b538      	push	{r3, r4, r5, lr}
  1025fa:	4605      	mov	r5, r0
  1025fc:	4604      	mov	r4, r0
  1025fe:	4b06      	ldr	r3, [pc, #24]	; (102618 <mbed::Ticker::~Ticker()+0x20>)
  102600:	f845 3b28 	str.w	r3, [r5], #40
  102604:	f00a f9ca 	bl	10c99c <mbed::Ticker::detach()>
  102608:	4628      	mov	r0, r5
  10260a:	f7ff ffed 	bl	1025e8 <mbed::Callback<void ()>::~Callback()>
  10260e:	4620      	mov	r0, r4
  102610:	f00a fa88 	bl	10cb24 <mbed::TimerEvent::~TimerEvent()>
  102614:	4620      	mov	r0, r4
  102616:	bd38      	pop	{r3, r4, r5, pc}
  102618:	001197a8 	.word	0x001197a8

0010261c <mbed::Ticker::~Ticker()>:
  10261c:	b510      	push	{r4, lr}
  10261e:	4604      	mov	r4, r0
  102620:	f7ff ffea 	bl	1025f8 <mbed::Ticker::~Ticker()>
  102624:	4620      	mov	r0, r4
  102626:	f00b f897 	bl	10d758 <operator delete(void*)>
  10262a:	4620      	mov	r0, r4
  10262c:	bd10      	pop	{r4, pc}
	...

00102630 <mbed::SerialBase::~SerialBase()>:
  102630:	b570      	push	{r4, r5, r6, lr}
  102632:	4605      	mov	r5, r0
  102634:	4b07      	ldr	r3, [pc, #28]	; (102654 <mbed::SerialBase::~SerialBase()+0x24>)
  102636:	4606      	mov	r6, r0
  102638:	f845 3b10 	str.w	r3, [r5], #16
  10263c:	b145      	cbz	r5, 102650 <mbed::SerialBase::~SerialBase()+0x20>
  10263e:	f100 0430 	add.w	r4, r0, #48	; 0x30
  102642:	42ac      	cmp	r4, r5
  102644:	d004      	beq.n	102650 <mbed::SerialBase::~SerialBase()+0x20>
  102646:	3c10      	subs	r4, #16
  102648:	4620      	mov	r0, r4
  10264a:	f7ff ffcd 	bl	1025e8 <mbed::Callback<void ()>::~Callback()>
  10264e:	e7f8      	b.n	102642 <mbed::SerialBase::~SerialBase()+0x12>
  102650:	4630      	mov	r0, r6
  102652:	bd70      	pop	{r4, r5, r6, pc}
  102654:	00119770 	.word	0x00119770

00102658 <mbed::SerialBase::~SerialBase()>:
  102658:	b510      	push	{r4, lr}
  10265a:	4604      	mov	r4, r0
  10265c:	f7ff ffe8 	bl	102630 <mbed::SerialBase::~SerialBase()>
  102660:	4620      	mov	r0, r4
  102662:	f00b f879 	bl	10d758 <operator delete(void*)>
  102666:	4620      	mov	r0, r4
  102668:	bd10      	pop	{r4, pc}
	...

0010266c <mbed::Serial::~Serial()>:
  10266c:	b510      	push	{r4, lr}
  10266e:	4604      	mov	r4, r0
  102670:	4b0a      	ldr	r3, [pc, #40]	; (10269c <mbed::Serial::~Serial()+0x30>)
  102672:	304c      	adds	r0, #76	; 0x4c
  102674:	f103 0220 	add.w	r2, r3, #32
  102678:	f840 3c4c 	str.w	r3, [r0, #-76]
  10267c:	337c      	adds	r3, #124	; 0x7c
  10267e:	f840 2c18 	str.w	r2, [r0, #-24]
  102682:	f840 3c14 	str.w	r3, [r0, #-20]
  102686:	f00b fa36 	bl	10daf6 <rtos::Mutex::~Mutex()>
  10268a:	f104 0034 	add.w	r0, r4, #52	; 0x34
  10268e:	f00b f9c7 	bl	10da20 <mbed::Stream::~Stream()>
  102692:	4620      	mov	r0, r4
  102694:	f7ff ffcc 	bl	102630 <mbed::SerialBase::~SerialBase()>
  102698:	4620      	mov	r0, r4
  10269a:	bd10      	pop	{r4, pc}
  10269c:	001196e4 	.word	0x001196e4

001026a0 <non-virtual thunk to mbed::Serial::~Serial()>:
  1026a0:	f1a0 0034 	sub.w	r0, r0, #52	; 0x34
  1026a4:	e7e2      	b.n	10266c <mbed::Serial::~Serial()>

001026a6 <non-virtual thunk to mbed::Serial::~Serial()>:
  1026a6:	f1a0 0038 	sub.w	r0, r0, #56	; 0x38
  1026aa:	e7df      	b.n	10266c <mbed::Serial::~Serial()>

001026ac <mbed::Callback<void ()>::Callback(mbed::Callback<void ()> const&)>:
  1026ac:	b538      	push	{r3, r4, r5, lr}
  1026ae:	68cb      	ldr	r3, [r1, #12]
  1026b0:	4604      	mov	r4, r0
  1026b2:	460d      	mov	r5, r1
  1026b4:	b10b      	cbz	r3, 1026ba <mbed::Callback<void ()>::Callback(mbed::Callback<void ()> const&)+0xe>
  1026b6:	685b      	ldr	r3, [r3, #4]
  1026b8:	4798      	blx	r3
  1026ba:	68eb      	ldr	r3, [r5, #12]
  1026bc:	4620      	mov	r0, r4
  1026be:	60e3      	str	r3, [r4, #12]
  1026c0:	bd38      	pop	{r3, r4, r5, pc}

001026c2 <mbed::Callback<void (char const*, unsigned int)>::Callback(mbed::Callback<void (char const*, unsigned int)> const&)>:
  1026c2:	b538      	push	{r3, r4, r5, lr}
  1026c4:	68cb      	ldr	r3, [r1, #12]
  1026c6:	4604      	mov	r4, r0
  1026c8:	460d      	mov	r5, r1
  1026ca:	b10b      	cbz	r3, 1026d0 <mbed::Callback<void (char const*, unsigned int)>::Callback(mbed::Callback<void (char const*, unsigned int)> const&)+0xe>
  1026cc:	685b      	ldr	r3, [r3, #4]
  1026ce:	4798      	blx	r3
  1026d0:	68eb      	ldr	r3, [r5, #12]
  1026d2:	4620      	mov	r0, r4
  1026d4:	60e3      	str	r3, [r4, #12]
  1026d6:	bd38      	pop	{r3, r4, r5, pc}

001026d8 <mbed::Callback<void (char const*, unsigned int)>::~Callback()>:
  1026d8:	68c3      	ldr	r3, [r0, #12]
  1026da:	b510      	push	{r4, lr}
  1026dc:	4604      	mov	r4, r0
  1026de:	b10b      	cbz	r3, 1026e4 <mbed::Callback<void (char const*, unsigned int)>::~Callback()+0xc>
  1026e0:	689b      	ldr	r3, [r3, #8]
  1026e2:	4798      	blx	r3
  1026e4:	4620      	mov	r0, r4
  1026e6:	bd10      	pop	{r4, pc}

001026e8 <std::_Rb_tree<std::__cxx11::basic_string<char, std::char_traits<char>, std::allocator<char> >, std::pair<std::__cxx11::basic_string<char, std::char_traits<char>, std::allocator<char> > const, std::__cxx11::basic_string<char, std::char_traits<char>, std::allocator<char> > >, std::_Select1st<std::pair<std::__cxx11::basic_string<char, std::char_traits<char>, std::allocator<char> > const, std::__cxx11::basic_string<char, std::char_traits<char>, std::allocator<char> > > >, std::less<std::__cxx11::basic_string<char, std::char_traits<char>, std::allocator<char> > >, std::allocator<std::pair<std::__cxx11::basic_string<char, std::char_traits<char>, std::allocator<char> > const, std::__cxx11::basic_string<char, std::char_traits<char>, std::allocator<char> > > > >::_M_erase(std::_Rb_tree_node<std::pair<std::__cxx11::basic_string<char, std::char_traits<char>, std::allocator<char> > const, std::__cxx11::basic_string<char, std::char_traits<char>, std::allocator<char> > > >*)>:
  1026e8:	b5f8      	push	{r3, r4, r5, r6, r7, lr}
  1026ea:	4607      	mov	r7, r0
  1026ec:	460c      	mov	r4, r1
  1026ee:	b194      	cbz	r4, 102716 <std::_Rb_tree<std::__cxx11::basic_string<char, std::char_traits<char>, std::allocator<char> >, std::pair<std::__cxx11::basic_string<char, std::char_traits<char>, std::allocator<char> > const, std::__cxx11::basic_string<char, std::char_traits<char>, std::allocator<char> > >, std::_Select1st<std::pair<std::__cxx11::basic_string<char, std::char_traits<char>, std::allocator<char> > const, std::__cxx11::basic_string<char, std::char_traits<char>, std::allocator<char> > > >, std::less<std::__cxx11::basic_string<char, std::char_traits<char>, std::allocator<char> > >, std::allocator<std::pair<std::__cxx11::basic_string<char, std::char_traits<char>, std::allocator<char> > const, std::__cxx11::basic_string<char, std::char_traits<char>, std::allocator<char> > > > >::_M_erase(std::_Rb_tree_node<std::pair<std::__cxx11::basic_string<char, std::char_traits<char>, std::allocator<char> > const, std::__cxx11::basic_string<char, std::char_traits<char>, std::allocator<char> > > >*)+0x2e>
  1026f0:	68e1      	ldr	r1, [r4, #12]
  1026f2:	4638      	mov	r0, r7
  1026f4:	f7ff fff8 	bl	1026e8 <std::_Rb_tree<std::__cxx11::basic_string<char, std::char_traits<char>, std::allocator<char> >, std::pair<std::__cxx11::basic_string<char, std::char_traits<char>, std::allocator<char> > const, std::__cxx11::basic_string<char, std::char_traits<char>, std::allocator<char> > >, std::_Select1st<std::pair<std::__cxx11::basic_string<char, std::char_traits<char>, std::allocator<char> > const, std::__cxx11::basic_string<char, std::char_traits<char>, std::allocator<char> > > >, std::less<std::__cxx11::basic_string<char, std::char_traits<char>, std::allocator<char> > >, std::allocator<std::pair<std::__cxx11::basic_string<char, std::char_traits<char>, std::allocator<char> > const, std::__cxx11::basic_string<char, std::char_traits<char>, std::allocator<char> > > > >::_M_erase(std::_Rb_tree_node<std::pair<std::__cxx11::basic_string<char, std::char_traits<char>, std::allocator<char> > const, std::__cxx11::basic_string<char, std::char_traits<char>, std::allocator<char> > > >*)>
  1026f8:	f104 0610 	add.w	r6, r4, #16
  1026fc:	f104 0028 	add.w	r0, r4, #40	; 0x28
  102700:	68a5      	ldr	r5, [r4, #8]
  102702:	f00b fcd5 	bl	10e0b0 <std::__cxx11::basic_string<char, std::char_traits<char>, std::allocator<char> >::_M_dispose()>
  102706:	4630      	mov	r0, r6
  102708:	f00b fcd2 	bl	10e0b0 <std::__cxx11::basic_string<char, std::char_traits<char>, std::allocator<char> >::_M_dispose()>
  10270c:	4620      	mov	r0, r4
  10270e:	f00b f823 	bl	10d758 <operator delete(void*)>
  102712:	462c      	mov	r4, r5
  102714:	e7eb      	b.n	1026ee <std::_Rb_tree<std::__cxx11::basic_string<char, std::char_traits<char>, std::allocator<char> >, std::pair<std::__cxx11::basic_string<char, std::char_traits<char>, std::allocator<char> > const, std::__cxx11::basic_string<char, std::char_traits<char>, std::allocator<char> > >, std::_Select1st<std::pair<std::__cxx11::basic_string<char, std::char_traits<char>, std::allocator<char> > const, std::__cxx11::basic_string<char, std::char_traits<char>, std::allocator<char> > > >, std::less<std::__cxx11::basic_string<char, std::char_traits<char>, std::allocator<char> > >, std::allocator<std::pair<std::__cxx11::basic_string<char, std::char_traits<char>, std::allocator<char> > const, std::__cxx11::basic_string<char, std::char_traits<char>, std::allocator<char> > > > >::_M_erase(std::_Rb_tree_node<std::pair<std::__cxx11::basic_string<char, std::char_traits<char>, std::allocator<char> > const, std::__cxx11::basic_string<char, std::char_traits<char>, std::allocator<char> > > >*)+0x6>
  102716:	bdf8      	pop	{r3, r4, r5, r6, r7, pc}

00102718 <HttpRequest::~HttpRequest()>:
  102718:	b538      	push	{r3, r4, r5, lr}
  10271a:	6a85      	ldr	r5, [r0, #40]	; 0x28
  10271c:	4604      	mov	r4, r0
  10271e:	b12d      	cbz	r5, 10272c <HttpRequest::~HttpRequest()+0x14>
  102720:	4628      	mov	r0, r5
  102722:	f7ff fe8a 	bl	10243a <HttpResponse::~HttpResponse()>
  102726:	4628      	mov	r0, r5
  102728:	f00b f816 	bl	10d758 <operator delete(void*)>
  10272c:	6a25      	ldr	r5, [r4, #32]
  10272e:	b1b5      	cbz	r5, 10275e <HttpRequest::~HttpRequest()+0x46>
  102730:	6868      	ldr	r0, [r5, #4]
  102732:	b108      	cbz	r0, 102738 <HttpRequest::~HttpRequest()+0x20>
  102734:	f00d fbac 	bl	10fe90 <free>
  102738:	68a8      	ldr	r0, [r5, #8]
  10273a:	b108      	cbz	r0, 102740 <HttpRequest::~HttpRequest()+0x28>
  10273c:	f00d fba8 	bl	10fe90 <free>
  102740:	68e8      	ldr	r0, [r5, #12]
  102742:	b108      	cbz	r0, 102748 <HttpRequest::~HttpRequest()+0x30>
  102744:	f00d fba4 	bl	10fe90 <free>
  102748:	6928      	ldr	r0, [r5, #16]
  10274a:	b108      	cbz	r0, 102750 <HttpRequest::~HttpRequest()+0x38>
  10274c:	f00d fba0 	bl	10fe90 <free>
  102750:	6968      	ldr	r0, [r5, #20]
  102752:	b108      	cbz	r0, 102758 <HttpRequest::~HttpRequest()+0x40>
  102754:	f00d fb9c 	bl	10fe90 <free>
  102758:	4628      	mov	r0, r5
  10275a:	f00a fffd 	bl	10d758 <operator delete(void*)>
  10275e:	6a65      	ldr	r5, [r4, #36]	; 0x24
  102760:	b13d      	cbz	r5, 102772 <HttpRequest::~HttpRequest()+0x5a>
  102762:	f105 0008 	add.w	r0, r5, #8
  102766:	6929      	ldr	r1, [r5, #16]
  102768:	f7ff ffbe 	bl	1026e8 <std::_Rb_tree<std::__cxx11::basic_string<char, std::char_traits<char>, std::allocator<char> >, std::pair<std::__cxx11::basic_string<char, std::char_traits<char>, std::allocator<char> > const, std::__cxx11::basic_string<char, std::char_traits<char>, std::allocator<char> > >, std::_Select1st<std::pair<std::__cxx11::basic_string<char, std::char_traits<char>, std::allocator<char> > const, std::__cxx11::basic_string<char, std::char_traits<char>, std::allocator<char> > > >, std::less<std::__cxx11::basic_string<char, std::char_traits<char>, std::allocator<char> > >, std::allocator<std::pair<std::__cxx11::basic_string<char, std::char_traits<char>, std::allocator<char> > const, std::__cxx11::basic_string<char, std::char_traits<char>, std::allocator<char> > > > >::_M_erase(std::_Rb_tree_node<std::pair<std::__cxx11::basic_string<char, std::char_traits<char>, std::allocator<char> > const, std::__cxx11::basic_string<char, std::char_traits<char>, std::allocator<char> > > >*)>
  10276c:	4628      	mov	r0, r5
  10276e:	f00a fff3 	bl	10d758 <operator delete(void*)>
  102772:	6860      	ldr	r0, [r4, #4]
  102774:	b128      	cbz	r0, 102782 <HttpRequest::~HttpRequest()+0x6a>
  102776:	f894 302c 	ldrb.w	r3, [r4, #44]	; 0x2c
  10277a:	b113      	cbz	r3, 102782 <HttpRequest::~HttpRequest()+0x6a>
  10277c:	6803      	ldr	r3, [r0, #0]
  10277e:	685b      	ldr	r3, [r3, #4]
  102780:	4798      	blx	r3
  102782:	f104 000c 	add.w	r0, r4, #12
  102786:	f7ff ffa7 	bl	1026d8 <mbed::Callback<void (char const*, unsigned int)>::~Callback()>
  10278a:	4620      	mov	r0, r4
  10278c:	bd38      	pop	{r3, r4, r5, pc}
	...

00102790 <mbed::Callback<void (char const*, unsigned int)>::call(char const*, unsigned int) const>:
  102790:	68c3      	ldr	r3, [r0, #12]
  102792:	b570      	push	{r4, r5, r6, lr}
  102794:	4604      	mov	r4, r0
  102796:	460d      	mov	r5, r1
  102798:	4616      	mov	r6, r2
  10279a:	b92b      	cbnz	r3, 1027a8 <mbed::Callback<void (char const*, unsigned int)>::call(char const*, unsigned int) const+0x18>
  10279c:	f240 628b 	movw	r2, #1675	; 0x68b
  1027a0:	4905      	ldr	r1, [pc, #20]	; (1027b8 <mbed::Callback<void (char const*, unsigned int)>::call(char const*, unsigned int) const+0x28>)
  1027a2:	4806      	ldr	r0, [pc, #24]	; (1027bc <mbed::Callback<void (char const*, unsigned int)>::call(char const*, unsigned int) const+0x2c>)
  1027a4:	f005 fffc 	bl	1087a0 <mbed_assert_internal>
  1027a8:	68e3      	ldr	r3, [r4, #12]
  1027aa:	4632      	mov	r2, r6
  1027ac:	4629      	mov	r1, r5
  1027ae:	4620      	mov	r0, r4
  1027b0:	e8bd 4070 	ldmia.w	sp!, {r4, r5, r6, lr}
  1027b4:	681b      	ldr	r3, [r3, #0]
  1027b6:	4718      	bx	r3
  1027b8:	00116053 	.word	0x00116053
  1027bc:	0011608b 	.word	0x0011608b

001027c0 <HttpParser::on_body_callback(http_parser*, char const*, unsigned int)>:
  1027c0:	6980      	ldr	r0, [r0, #24]
  1027c2:	b5f8      	push	{r3, r4, r5, r6, r7, lr}
  1027c4:	6804      	ldr	r4, [r0, #0]
  1027c6:	460f      	mov	r7, r1
  1027c8:	6e23      	ldr	r3, [r4, #96]	; 0x60
  1027ca:	4615      	mov	r5, r2
  1027cc:	4413      	add	r3, r2
  1027ce:	6623      	str	r3, [r4, #96]	; 0x60
  1027d0:	6903      	ldr	r3, [r0, #16]
  1027d2:	b11b      	cbz	r3, 1027dc <HttpParser::on_body_callback(http_parser*, char const*, unsigned int)+0x1c>
  1027d4:	3004      	adds	r0, #4
  1027d6:	f7ff ffdb 	bl	102790 <mbed::Callback<void (char const*, unsigned int)>::call(char const*, unsigned int) const>
  1027da:	e031      	b.n	102840 <HttpParser::on_body_callback(http_parser*, char const*, unsigned int)+0x80>
  1027dc:	6d60      	ldr	r0, [r4, #84]	; 0x54
  1027de:	b918      	cbnz	r0, 1027e8 <HttpParser::on_body_callback(http_parser*, char const*, unsigned int)+0x28>
  1027e0:	b112      	cbz	r2, 1027e8 <HttpParser::on_body_callback(http_parser*, char const*, unsigned int)+0x28>
  1027e2:	2301      	movs	r3, #1
  1027e4:	f884 3058 	strb.w	r3, [r4, #88]	; 0x58
  1027e8:	6de3      	ldr	r3, [r4, #92]	; 0x5c
  1027ea:	b92b      	cbnz	r3, 1027f8 <HttpParser::on_body_callback(http_parser*, char const*, unsigned int)+0x38>
  1027ec:	f894 3058 	ldrb.w	r3, [r4, #88]	; 0x58
  1027f0:	b913      	cbnz	r3, 1027f8 <HttpParser::on_body_callback(http_parser*, char const*, unsigned int)+0x38>
  1027f2:	f00d fb45 	bl	10fe80 <malloc>
  1027f6:	65e0      	str	r0, [r4, #92]	; 0x5c
  1027f8:	f894 3058 	ldrb.w	r3, [r4, #88]	; 0x58
  1027fc:	b1b3      	cbz	r3, 10282c <HttpParser::on_body_callback(http_parser*, char const*, unsigned int)+0x6c>
  1027fe:	6de6      	ldr	r6, [r4, #92]	; 0x5c
  102800:	b926      	cbnz	r6, 10280c <HttpParser::on_body_callback(http_parser*, char const*, unsigned int)+0x4c>
  102802:	4628      	mov	r0, r5
  102804:	f00d fb3c 	bl	10fe80 <malloc>
  102808:	65e0      	str	r0, [r4, #92]	; 0x5c
  10280a:	e00f      	b.n	10282c <HttpParser::on_body_callback(http_parser*, char const*, unsigned int)+0x6c>
  10280c:	6e61      	ldr	r1, [r4, #100]	; 0x64
  10280e:	4630      	mov	r0, r6
  102810:	4429      	add	r1, r5
  102812:	f00e fded 	bl	1113f0 <realloc>
  102816:	65e0      	str	r0, [r4, #92]	; 0x5c
  102818:	b940      	cbnz	r0, 10282c <HttpParser::on_body_callback(http_parser*, char const*, unsigned int)+0x6c>
  10281a:	6e61      	ldr	r1, [r4, #100]	; 0x64
  10281c:	4809      	ldr	r0, [pc, #36]	; (102844 <HttpParser::on_body_callback(http_parser*, char const*, unsigned int)+0x84>)
  10281e:	4429      	add	r1, r5
  102820:	f00e fd4e 	bl	1112c0 <iprintf>
  102824:	4630      	mov	r0, r6
  102826:	f00d fb33 	bl	10fe90 <free>
  10282a:	e009      	b.n	102840 <HttpParser::on_body_callback(http_parser*, char const*, unsigned int)+0x80>
  10282c:	6e63      	ldr	r3, [r4, #100]	; 0x64
  10282e:	6de0      	ldr	r0, [r4, #92]	; 0x5c
  102830:	462a      	mov	r2, r5
  102832:	4418      	add	r0, r3
  102834:	4639      	mov	r1, r7
  102836:	f00d fb50 	bl	10feda <memcpy>
  10283a:	6e63      	ldr	r3, [r4, #100]	; 0x64
  10283c:	441d      	add	r5, r3
  10283e:	6665      	str	r5, [r4, #100]	; 0x64
  102840:	2000      	movs	r0, #0
  102842:	bdf8      	pop	{r3, r4, r5, r6, r7, pc}
  102844:	00116090 	.word	0x00116090

00102848 <void std::vector<std::__cxx11::basic_string<char, std::char_traits<char>, std::allocator<char> >*, std::allocator<std::__cxx11::basic_string<char, std::char_traits<char>, std::allocator<char> >*> >::_M_emplace_back_aux<std::__cxx11::basic_string<char, std::char_traits<char>, std::allocator<char> >*>(std::__cxx11::basic_string<char, std::char_traits<char>, std::allocator<char> >*&&)>:
  102848:	b5f8      	push	{r3, r4, r5, r6, r7, lr}
  10284a:	6843      	ldr	r3, [r0, #4]
  10284c:	6804      	ldr	r4, [r0, #0]
  10284e:	4605      	mov	r5, r0
  102850:	1b1c      	subs	r4, r3, r4
  102852:	10a4      	asrs	r4, r4, #2
  102854:	bf14      	ite	ne
  102856:	4623      	movne	r3, r4
  102858:	2301      	moveq	r3, #1
  10285a:	18e4      	adds	r4, r4, r3
  10285c:	460f      	mov	r7, r1
  10285e:	d202      	bcs.n	102866 <void std::vector<std::__cxx11::basic_string<char, std::char_traits<char>, std::allocator<char> >*, std::allocator<std::__cxx11::basic_string<char, std::char_traits<char>, std::allocator<char> >*> >::_M_emplace_back_aux<std::__cxx11::basic_string<char, std::char_traits<char>, std::allocator<char> >*>(std::__cxx11::basic_string<char, std::char_traits<char>, std::allocator<char> >*&&)+0x1e>
  102860:	f1b4 4f80 	cmp.w	r4, #1073741824	; 0x40000000
  102864:	d321      	bcc.n	1028aa <void std::vector<std::__cxx11::basic_string<char, std::char_traits<char>, std::allocator<char> >*, std::allocator<std::__cxx11::basic_string<char, std::char_traits<char>, std::allocator<char> >*> >::_M_emplace_back_aux<std::__cxx11::basic_string<char, std::char_traits<char>, std::allocator<char> >*>(std::__cxx11::basic_string<char, std::char_traits<char>, std::allocator<char> >*&&)+0x62>
  102866:	f06f 4440 	mvn.w	r4, #3221225472	; 0xc0000000
  10286a:	00a0      	lsls	r0, r4, #2
  10286c:	f00a ff58 	bl	10d720 <operator new(unsigned int)>
  102870:	4606      	mov	r6, r0
  102872:	e895 000c 	ldmia.w	r5, {r2, r3}
  102876:	1a9b      	subs	r3, r3, r2
  102878:	683a      	ldr	r2, [r7, #0]
  10287a:	42de      	cmn	r6, r3
  10287c:	bf18      	it	ne
  10287e:	50f2      	strne	r2, [r6, r3]
  102880:	e895 0082 	ldmia.w	r5, {r1, r7}
  102884:	1a7f      	subs	r7, r7, r1
  102886:	08bb      	lsrs	r3, r7, #2
  102888:	d003      	beq.n	102892 <void std::vector<std::__cxx11::basic_string<char, std::char_traits<char>, std::allocator<char> >*, std::allocator<std::__cxx11::basic_string<char, std::char_traits<char>, std::allocator<char> >*> >::_M_emplace_back_aux<std::__cxx11::basic_string<char, std::char_traits<char>, std::allocator<char> >*>(std::__cxx11::basic_string<char, std::char_traits<char>, std::allocator<char> >*&&)+0x4a>
  10288a:	463a      	mov	r2, r7
  10288c:	4630      	mov	r0, r6
  10288e:	f00d fb2f 	bl	10fef0 <memmove>
  102892:	6828      	ldr	r0, [r5, #0]
  102894:	3704      	adds	r7, #4
  102896:	4437      	add	r7, r6
  102898:	b108      	cbz	r0, 10289e <void std::vector<std::__cxx11::basic_string<char, std::char_traits<char>, std::allocator<char> >*, std::allocator<std::__cxx11::basic_string<char, std::char_traits<char>, std::allocator<char> >*> >::_M_emplace_back_aux<std::__cxx11::basic_string<char, std::char_traits<char>, std::allocator<char> >*>(std::__cxx11::basic_string<char, std::char_traits<char>, std::allocator<char> >*&&)+0x56>
  10289a:	f00a ff5d 	bl	10d758 <operator delete(void*)>
  10289e:	eb06 0484 	add.w	r4, r6, r4, lsl #2
  1028a2:	e885 00c0 	stmia.w	r5, {r6, r7}
  1028a6:	60ac      	str	r4, [r5, #8]
  1028a8:	bdf8      	pop	{r3, r4, r5, r6, r7, pc}
  1028aa:	2c00      	cmp	r4, #0
  1028ac:	d1dd      	bne.n	10286a <void std::vector<std::__cxx11::basic_string<char, std::char_traits<char>, std::allocator<char> >*, std::allocator<std::__cxx11::basic_string<char, std::char_traits<char>, std::allocator<char> >*> >::_M_emplace_back_aux<std::__cxx11::basic_string<char, std::char_traits<char>, std::allocator<char> >*>(std::__cxx11::basic_string<char, std::char_traits<char>, std::allocator<char> >*&&)+0x22>
  1028ae:	4626      	mov	r6, r4
  1028b0:	e7df      	b.n	102872 <void std::vector<std::__cxx11::basic_string<char, std::char_traits<char>, std::allocator<char> >*, std::allocator<std::__cxx11::basic_string<char, std::char_traits<char>, std::allocator<char> >*> >::_M_emplace_back_aux<std::__cxx11::basic_string<char, std::char_traits<char>, std::allocator<char> >*>(std::__cxx11::basic_string<char, std::char_traits<char>, std::allocator<char> >*&&)+0x2a>

001028b2 <void std::vector<std::__cxx11::basic_string<char, std::char_traits<char>, std::allocator<char> >*, std::allocator<std::__cxx11::basic_string<char, std::char_traits<char>, std::allocator<char> >*> >::emplace_back<std::__cxx11::basic_string<char, std::char_traits<char>, std::allocator<char> >*>(std::__cxx11::basic_string<char, std::char_traits<char>, std::allocator<char> >*&&)>:
  1028b2:	b538      	push	{r3, r4, r5, lr}
  1028b4:	6842      	ldr	r2, [r0, #4]
  1028b6:	6885      	ldr	r5, [r0, #8]
  1028b8:	4603      	mov	r3, r0
  1028ba:	42aa      	cmp	r2, r5
  1028bc:	d006      	beq.n	1028cc <void std::vector<std::__cxx11::basic_string<char, std::char_traits<char>, std::allocator<char> >*, std::allocator<std::__cxx11::basic_string<char, std::char_traits<char>, std::allocator<char> >*> >::emplace_back<std::__cxx11::basic_string<char, std::char_traits<char>, std::allocator<char> >*>(std::__cxx11::basic_string<char, std::char_traits<char>, std::allocator<char> >*&&)+0x1a>
  1028be:	6809      	ldr	r1, [r1, #0]
  1028c0:	b102      	cbz	r2, 1028c4 <void std::vector<std::__cxx11::basic_string<char, std::char_traits<char>, std::allocator<char> >*, std::allocator<std::__cxx11::basic_string<char, std::char_traits<char>, std::allocator<char> >*> >::emplace_back<std::__cxx11::basic_string<char, std::char_traits<char>, std::allocator<char> >*>(std::__cxx11::basic_string<char, std::char_traits<char>, std::allocator<char> >*&&)+0x12>
  1028c2:	6011      	str	r1, [r2, #0]
  1028c4:	685a      	ldr	r2, [r3, #4]
  1028c6:	3204      	adds	r2, #4
  1028c8:	605a      	str	r2, [r3, #4]
  1028ca:	bd38      	pop	{r3, r4, r5, pc}
  1028cc:	f7ff ffbc 	bl	102848 <void std::vector<std::__cxx11::basic_string<char, std::char_traits<char>, std::allocator<char> >*, std::allocator<std::__cxx11::basic_string<char, std::char_traits<char>, std::allocator<char> >*> >::_M_emplace_back_aux<std::__cxx11::basic_string<char, std::char_traits<char>, std::allocator<char> >*>(std::__cxx11::basic_string<char, std::char_traits<char>, std::allocator<char> >*&&)>
  1028d0:	bd38      	pop	{r3, r4, r5, pc}

001028d2 <HttpParser::on_header_value_callback(http_parser*, char const*, unsigned int)>:
  1028d2:	b530      	push	{r4, r5, lr}
  1028d4:	6984      	ldr	r4, [r0, #24]
  1028d6:	b093      	sub	sp, #76	; 0x4c
  1028d8:	ab02      	add	r3, sp, #8
  1028da:	440a      	add	r2, r1
  1028dc:	4668      	mov	r0, sp
  1028de:	9300      	str	r3, [sp, #0]
  1028e0:	f7ff fd2e 	bl	102340 <void std::__cxx11::basic_string<char, std::char_traits<char>, std::allocator<char> >::_M_construct<char const*>(char const*, char const*, std::forward_iterator_tag) [clone .isra.52]>
  1028e4:	6824      	ldr	r4, [r4, #0]
  1028e6:	4669      	mov	r1, sp
  1028e8:	a806      	add	r0, sp, #24
  1028ea:	f00b fd47 	bl	10e37c <std::__cxx11::basic_string<char, std::char_traits<char>, std::allocator<char> >::basic_string(std::__cxx11::basic_string<char, std::char_traits<char>, std::allocator<char> > const&)>
  1028ee:	2300      	movs	r3, #0
  1028f0:	f884 3050 	strb.w	r3, [r4, #80]	; 0x50
  1028f4:	f894 3051 	ldrb.w	r3, [r4, #81]	; 0x51
  1028f8:	b1b3      	cbz	r3, 102928 <HttpParser::on_header_value_callback(http_parser*, char const*, unsigned int)+0x56>
  1028fa:	6c62      	ldr	r2, [r4, #68]	; 0x44
  1028fc:	6ca3      	ldr	r3, [r4, #72]	; 0x48
  1028fe:	a80c      	add	r0, sp, #48	; 0x30
  102900:	1a9b      	subs	r3, r3, r2
  102902:	109b      	asrs	r3, r3, #2
  102904:	3b01      	subs	r3, #1
  102906:	f852 5023 	ldr.w	r5, [r2, r3, lsl #2]
  10290a:	4629      	mov	r1, r5
  10290c:	f00b fd36 	bl	10e37c <std::__cxx11::basic_string<char, std::char_traits<char>, std::allocator<char> >::basic_string(std::__cxx11::basic_string<char, std::char_traits<char>, std::allocator<char> > const&)>
  102910:	a906      	add	r1, sp, #24
  102912:	a80c      	add	r0, sp, #48	; 0x30
  102914:	f00b fc8e 	bl	10e234 <std::__cxx11::basic_string<char, std::char_traits<char>, std::allocator<char> >::append(std::__cxx11::basic_string<char, std::char_traits<char>, std::allocator<char> > const&)>
  102918:	4628      	mov	r0, r5
  10291a:	a90c      	add	r1, sp, #48	; 0x30
  10291c:	f00b fc8f 	bl	10e23e <std::__cxx11::basic_string<char, std::char_traits<char>, std::allocator<char> >::swap(std::__cxx11::basic_string<char, std::char_traits<char>, std::allocator<char> >&)>
  102920:	a80c      	add	r0, sp, #48	; 0x30
  102922:	f00b fbc5 	bl	10e0b0 <std::__cxx11::basic_string<char, std::char_traits<char>, std::allocator<char> >::_M_dispose()>
  102926:	e00c      	b.n	102942 <HttpParser::on_header_value_callback(http_parser*, char const*, unsigned int)+0x70>
  102928:	2018      	movs	r0, #24
  10292a:	f00a fef9 	bl	10d720 <operator new(unsigned int)>
  10292e:	4605      	mov	r5, r0
  102930:	a906      	add	r1, sp, #24
  102932:	f00b fd23 	bl	10e37c <std::__cxx11::basic_string<char, std::char_traits<char>, std::allocator<char> >::basic_string(std::__cxx11::basic_string<char, std::char_traits<char>, std::allocator<char> > const&)>
  102936:	a90c      	add	r1, sp, #48	; 0x30
  102938:	f104 0044 	add.w	r0, r4, #68	; 0x44
  10293c:	950c      	str	r5, [sp, #48]	; 0x30
  10293e:	f7ff ffb8 	bl	1028b2 <void std::vector<std::__cxx11::basic_string<char, std::char_traits<char>, std::allocator<char> >*, std::allocator<std::__cxx11::basic_string<char, std::char_traits<char>, std::allocator<char> >*> >::emplace_back<std::__cxx11::basic_string<char, std::char_traits<char>, std::allocator<char> >*>(std::__cxx11::basic_string<char, std::char_traits<char>, std::allocator<char> >*&&)>
  102942:	2301      	movs	r3, #1
  102944:	f884 3051 	strb.w	r3, [r4, #81]	; 0x51
  102948:	a806      	add	r0, sp, #24
  10294a:	f00b fbb1 	bl	10e0b0 <std::__cxx11::basic_string<char, std::char_traits<char>, std::allocator<char> >::_M_dispose()>
  10294e:	4668      	mov	r0, sp
  102950:	f00b fbae 	bl	10e0b0 <std::__cxx11::basic_string<char, std::char_traits<char>, std::allocator<char> >::_M_dispose()>
  102954:	2000      	movs	r0, #0
  102956:	b013      	add	sp, #76	; 0x4c
  102958:	bd30      	pop	{r4, r5, pc}

0010295a <HttpParser::on_header_field_callback(http_parser*, char const*, unsigned int)>:
  10295a:	b530      	push	{r4, r5, lr}
  10295c:	6984      	ldr	r4, [r0, #24]
  10295e:	b093      	sub	sp, #76	; 0x4c
  102960:	ab02      	add	r3, sp, #8
  102962:	440a      	add	r2, r1
  102964:	4668      	mov	r0, sp
  102966:	9300      	str	r3, [sp, #0]
  102968:	f7ff fcea 	bl	102340 <void std::__cxx11::basic_string<char, std::char_traits<char>, std::allocator<char> >::_M_construct<char const*>(char const*, char const*, std::forward_iterator_tag) [clone .isra.52]>
  10296c:	6824      	ldr	r4, [r4, #0]
  10296e:	4669      	mov	r1, sp
  102970:	a806      	add	r0, sp, #24
  102972:	f00b fd03 	bl	10e37c <std::__cxx11::basic_string<char, std::char_traits<char>, std::allocator<char> >::basic_string(std::__cxx11::basic_string<char, std::char_traits<char>, std::allocator<char> > const&)>
  102976:	2300      	movs	r3, #0
  102978:	f884 3051 	strb.w	r3, [r4, #81]	; 0x51
  10297c:	f894 3050 	ldrb.w	r3, [r4, #80]	; 0x50
  102980:	b1b3      	cbz	r3, 1029b0 <HttpParser::on_header_field_callback(http_parser*, char const*, unsigned int)+0x56>
  102982:	6ba2      	ldr	r2, [r4, #56]	; 0x38
  102984:	6be3      	ldr	r3, [r4, #60]	; 0x3c
  102986:	a80c      	add	r0, sp, #48	; 0x30
  102988:	1a9b      	subs	r3, r3, r2
  10298a:	109b      	asrs	r3, r3, #2
  10298c:	3b01      	subs	r3, #1
  10298e:	f852 5023 	ldr.w	r5, [r2, r3, lsl #2]
  102992:	4629      	mov	r1, r5
  102994:	f00b fcf2 	bl	10e37c <std::__cxx11::basic_string<char, std::char_traits<char>, std::allocator<char> >::basic_string(std::__cxx11::basic_string<char, std::char_traits<char>, std::allocator<char> > const&)>
  102998:	a906      	add	r1, sp, #24
  10299a:	a80c      	add	r0, sp, #48	; 0x30
  10299c:	f00b fc4a 	bl	10e234 <std::__cxx11::basic_string<char, std::char_traits<char>, std::allocator<char> >::append(std::__cxx11::basic_string<char, std::char_traits<char>, std::allocator<char> > const&)>
  1029a0:	4628      	mov	r0, r5
  1029a2:	a90c      	add	r1, sp, #48	; 0x30
  1029a4:	f00b fc4b 	bl	10e23e <std::__cxx11::basic_string<char, std::char_traits<char>, std::allocator<char> >::swap(std::__cxx11::basic_string<char, std::char_traits<char>, std::allocator<char> >&)>
  1029a8:	a80c      	add	r0, sp, #48	; 0x30
  1029aa:	f00b fb81 	bl	10e0b0 <std::__cxx11::basic_string<char, std::char_traits<char>, std::allocator<char> >::_M_dispose()>
  1029ae:	e00c      	b.n	1029ca <HttpParser::on_header_field_callback(http_parser*, char const*, unsigned int)+0x70>
  1029b0:	2018      	movs	r0, #24
  1029b2:	f00a feb5 	bl	10d720 <operator new(unsigned int)>
  1029b6:	4605      	mov	r5, r0
  1029b8:	a906      	add	r1, sp, #24
  1029ba:	f00b fcdf 	bl	10e37c <std::__cxx11::basic_string<char, std::char_traits<char>, std::allocator<char> >::basic_string(std::__cxx11::basic_string<char, std::char_traits<char>, std::allocator<char> > const&)>
  1029be:	a90c      	add	r1, sp, #48	; 0x30
  1029c0:	f104 0038 	add.w	r0, r4, #56	; 0x38
  1029c4:	950c      	str	r5, [sp, #48]	; 0x30
  1029c6:	f7ff ff74 	bl	1028b2 <void std::vector<std::__cxx11::basic_string<char, std::char_traits<char>, std::allocator<char> >*, std::allocator<std::__cxx11::basic_string<char, std::char_traits<char>, std::allocator<char> >*> >::emplace_back<std::__cxx11::basic_string<char, std::char_traits<char>, std::allocator<char> >*>(std::__cxx11::basic_string<char, std::char_traits<char>, std::allocator<char> >*&&)>
  1029ca:	2301      	movs	r3, #1
  1029cc:	f884 3050 	strb.w	r3, [r4, #80]	; 0x50
  1029d0:	a806      	add	r0, sp, #24
  1029d2:	f00b fb6d 	bl	10e0b0 <std::__cxx11::basic_string<char, std::char_traits<char>, std::allocator<char> >::_M_dispose()>
  1029d6:	4668      	mov	r0, sp
  1029d8:	f00b fb6a 	bl	10e0b0 <std::__cxx11::basic_string<char, std::char_traits<char>, std::allocator<char> >::_M_dispose()>
  1029dc:	2000      	movs	r0, #0
  1029de:	b013      	add	sp, #76	; 0x4c
  1029e0:	bd30      	pop	{r4, r5, pc}

001029e2 <bool std::operator< <char, std::char_traits<char>, std::allocator<char> >(std::__cxx11::basic_string<char, std::char_traits<char>, std::allocator<char> > const&, std::__cxx11::basic_string<char, std::char_traits<char>, std::allocator<char> > const&)>:
  1029e2:	b508      	push	{r3, lr}
  1029e4:	f00b fc97 	bl	10e316 <std::__cxx11::basic_string<char, std::char_traits<char>, std::allocator<char> >::compare(std::__cxx11::basic_string<char, std::char_traits<char>, std::allocator<char> > const&) const>
  1029e8:	0fc0      	lsrs	r0, r0, #31
  1029ea:	bd08      	pop	{r3, pc}

001029ec <std::_Rb_tree<std::__cxx11::basic_string<char, std::char_traits<char>, std::allocator<char> >, std::pair<std::__cxx11::basic_string<char, std::char_traits<char>, std::allocator<char> > const, std::__cxx11::basic_string<char, std::char_traits<char>, std::allocator<char> > >, std::_Select1st<std::pair<std::__cxx11::basic_string<char, std::char_traits<char>, std::allocator<char> > const, std::__cxx11::basic_string<char, std::char_traits<char>, std::allocator<char> > > >, std::less<std::__cxx11::basic_string<char, std::char_traits<char>, std::allocator<char> > >, std::allocator<std::pair<std::__cxx11::basic_string<char, std::char_traits<char>, std::allocator<char> > const, std::__cxx11::basic_string<char, std::char_traits<char>, std::allocator<char> > > > >::_M_get_insert_unique_pos(std::__cxx11::basic_string<char, std::char_traits<char>, std::allocator<char> > const&)>:
  1029ec:	e92d 41f0 	stmdb	sp!, {r4, r5, r6, r7, r8, lr}
  1029f0:	460f      	mov	r7, r1
  1029f2:	4690      	mov	r8, r2
  1029f4:	688d      	ldr	r5, [r1, #8]
  1029f6:	4604      	mov	r4, r0
  1029f8:	1d0e      	adds	r6, r1, #4
  1029fa:	2001      	movs	r0, #1
  1029fc:	b15d      	cbz	r5, 102a16 <std::_Rb_tree<std::__cxx11::basic_string<char, std::char_traits<char>, std::allocator<char> >, std::pair<std::__cxx11::basic_string<char, std::char_traits<char>, std::allocator<char> > const, std::__cxx11::basic_string<char, std::char_traits<char>, std::allocator<char> > >, std::_Select1st<std::pair<std::__cxx11::basic_string<char, std::char_traits<char>, std::allocator<char> > const, std::__cxx11::basic_string<char, std::char_traits<char>, std::allocator<char> > > >, std::less<std::__cxx11::basic_string<char, std::char_traits<char>, std::allocator<char> > >, std::allocator<std::pair<std::__cxx11::basic_string<char, std::char_traits<char>, std::allocator<char> > const, std::__cxx11::basic_string<char, std::char_traits<char>, std::allocator<char> > > > >::_M_get_insert_unique_pos(std::__cxx11::basic_string<char, std::char_traits<char>, std::allocator<char> > const&)+0x2a>
  1029fe:	f105 0110 	add.w	r1, r5, #16
  102a02:	4640      	mov	r0, r8
  102a04:	f7ff ffed 	bl	1029e2 <bool std::operator< <char, std::char_traits<char>, std::allocator<char> >(std::__cxx11::basic_string<char, std::char_traits<char>, std::allocator<char> > const&, std::__cxx11::basic_string<char, std::char_traits<char>, std::allocator<char> > const&)>
  102a08:	b118      	cbz	r0, 102a12 <std::_Rb_tree<std::__cxx11::basic_string<char, std::char_traits<char>, std::allocator<char> >, std::pair<std::__cxx11::basic_string<char, std::char_traits<char>, std::allocator<char> > const, std::__cxx11::basic_string<char, std::char_traits<char>, std::allocator<char> > >, std::_Select1st<std::pair<std::__cxx11::basic_string<char, std::char_traits<char>, std::allocator<char> > const, std::__cxx11::basic_string<char, std::char_traits<char>, std::allocator<char> > > >, std::less<std::__cxx11::basic_string<char, std::char_traits<char>, std::allocator<char> > >, std::allocator<std::pair<std::__cxx11::basic_string<char, std::char_traits<char>, std::allocator<char> > const, std::__cxx11::basic_string<char, std::char_traits<char>, std::allocator<char> > > > >::_M_get_insert_unique_pos(std::__cxx11::basic_string<char, std::char_traits<char>, std::allocator<char> > const&)+0x26>
  102a0a:	68ab      	ldr	r3, [r5, #8]
  102a0c:	462e      	mov	r6, r5
  102a0e:	461d      	mov	r5, r3
  102a10:	e7f4      	b.n	1029fc <std::_Rb_tree<std::__cxx11::basic_string<char, std::char_traits<char>, std::allocator<char> >, std::pair<std::__cxx11::basic_string<char, std::char_traits<char>, std::allocator<char> > const, std::__cxx11::basic_string<char, std::char_traits<char>, std::allocator<char> > >, std::_Select1st<std::pair<std::__cxx11::basic_string<char, std::char_traits<char>, std::allocator<char> > const, std::__cxx11::basic_string<char, std::char_traits<char>, std::allocator<char> > > >, std::less<std::__cxx11::basic_string<char, std::char_traits<char>, std::allocator<char> > >, std::allocator<std::pair<std::__cxx11::basic_string<char, std::char_traits<char>, std::allocator<char> > const, std::__cxx11::basic_string<char, std::char_traits<char>, std::allocator<char> > > > >::_M_get_insert_unique_pos(std::__cxx11::basic_string<char, std::char_traits<char>, std::allocator<char> > const&)+0x10>
  102a12:	68eb      	ldr	r3, [r5, #12]
  102a14:	e7fa      	b.n	102a0c <std::_Rb_tree<std::__cxx11::basic_string<char, std::char_traits<char>, std::allocator<char> >, std::pair<std::__cxx11::basic_string<char, std::char_traits<char>, std::allocator<char> > const, std::__cxx11::basic_string<char, std::char_traits<char>, std::allocator<char> > >, std::_Select1st<std::pair<std::__cxx11::basic_string<char, std::char_traits<char>, std::allocator<char> > const, std::__cxx11::basic_string<char, std::char_traits<char>, std::allocator<char> > > >, std::less<std::__cxx11::basic_string<char, std::char_traits<char>, std::allocator<char> > >, std::allocator<std::pair<std::__cxx11::basic_string<char, std::char_traits<char>, std::allocator<char> > const, std::__cxx11::basic_string<char, std::char_traits<char>, std::allocator<char> > > > >::_M_get_insert_unique_pos(std::__cxx11::basic_string<char, std::char_traits<char>, std::allocator<char> > const&)+0x20>
  102a16:	b148      	cbz	r0, 102a2c <std::_Rb_tree<std::__cxx11::basic_string<char, std::char_traits<char>, std::allocator<char> >, std::pair<std::__cxx11::basic_string<char, std::char_traits<char>, std::allocator<char> > const, std::__cxx11::basic_string<char, std::char_traits<char>, std::allocator<char> > >, std::_Select1st<std::pair<std::__cxx11::basic_string<char, std::char_traits<char>, std::allocator<char> > const, std::__cxx11::basic_string<char, std::char_traits<char>, std::allocator<char> > > >, std::less<std::__cxx11::basic_string<char, std::char_traits<char>, std::allocator<char> > >, std::allocator<std::pair<std::__cxx11::basic_string<char, std::char_traits<char>, std::allocator<char> > const, std::__cxx11::basic_string<char, std::char_traits<char>, std::allocator<char> > > > >::_M_get_insert_unique_pos(std::__cxx11::basic_string<char, std::char_traits<char>, std::allocator<char> > const&)+0x40>
  102a18:	68fb      	ldr	r3, [r7, #12]
  102a1a:	429e      	cmp	r6, r3
  102a1c:	d101      	bne.n	102a22 <std::_Rb_tree<std::__cxx11::basic_string<char, std::char_traits<char>, std::allocator<char> >, std::pair<std::__cxx11::basic_string<char, std::char_traits<char>, std::allocator<char> > const, std::__cxx11::basic_string<char, std::char_traits<char>, std::allocator<char> > >, std::_Select1st<std::pair<std::__cxx11::basic_string<char, std::char_traits<char>, std::allocator<char> > const, std::__cxx11::basic_string<char, std::char_traits<char>, std::allocator<char> > > >, std::less<std::__cxx11::basic_string<char, std::char_traits<char>, std::allocator<char> > >, std::allocator<std::pair<std::__cxx11::basic_string<char, std::char_traits<char>, std::allocator<char> > const, std::__cxx11::basic_string<char, std::char_traits<char>, std::allocator<char> > > > >::_M_get_insert_unique_pos(std::__cxx11::basic_string<char, std::char_traits<char>, std::allocator<char> > const&)+0x36>
  102a1e:	6025      	str	r5, [r4, #0]
  102a20:	e00d      	b.n	102a3e <std::_Rb_tree<std::__cxx11::basic_string<char, std::char_traits<char>, std::allocator<char> >, std::pair<std::__cxx11::basic_string<char, std::char_traits<char>, std::allocator<char> > const, std::__cxx11::basic_string<char, std::char_traits<char>, std::allocator<char> > >, std::_Select1st<std::pair<std::__cxx11::basic_string<char, std::char_traits<char>, std::allocator<char> > const, std::__cxx11::basic_string<char, std::char_traits<char>, std::allocator<char> > > >, std::less<std::__cxx11::basic_string<char, std::char_traits<char>, std::allocator<char> > >, std::allocator<std::pair<std::__cxx11::basic_string<char, std::char_traits<char>, std::allocator<char> > const, std::__cxx11::basic_string<char, std::char_traits<char>, std::allocator<char> > > > >::_M_get_insert_unique_pos(std::__cxx11::basic_string<char, std::char_traits<char>, std::allocator<char> > const&)+0x52>
  102a22:	4630      	mov	r0, r6
  102a24:	f00b fab4 	bl	10df90 <std::_Rb_tree_decrement(std::_Rb_tree_node_base*)>
  102a28:	4605      	mov	r5, r0
  102a2a:	e000      	b.n	102a2e <std::_Rb_tree<std::__cxx11::basic_string<char, std::char_traits<char>, std::allocator<char> >, std::pair<std::__cxx11::basic_string<char, std::char_traits<char>, std::allocator<char> > const, std::__cxx11::basic_string<char, std::char_traits<char>, std::allocator<char> > >, std::_Select1st<std::pair<std::__cxx11::basic_string<char, std::char_traits<char>, std::allocator<char> > const, std::__cxx11::basic_string<char, std::char_traits<char>, std::allocator<char> > > >, std::less<std::__cxx11::basic_string<char, std::char_traits<char>, std::allocator<char> > >, std::allocator<std::pair<std::__cxx11::basic_string<char, std::char_traits<char>, std::allocator<char> > const, std::__cxx11::basic_string<char, std::char_traits<char>, std::allocator<char> > > > >::_M_get_insert_unique_pos(std::__cxx11::basic_string<char, std::char_traits<char>, std::allocator<char> > const&)+0x42>
  102a2c:	4635      	mov	r5, r6
  102a2e:	4641      	mov	r1, r8
  102a30:	f105 0010 	add.w	r0, r5, #16
  102a34:	f7ff ffd5 	bl	1029e2 <bool std::operator< <char, std::char_traits<char>, std::allocator<char> >(std::__cxx11::basic_string<char, std::char_traits<char>, std::allocator<char> > const&, std::__cxx11::basic_string<char, std::char_traits<char>, std::allocator<char> > const&)>
  102a38:	b118      	cbz	r0, 102a42 <std::_Rb_tree<std::__cxx11::basic_string<char, std::char_traits<char>, std::allocator<char> >, std::pair<std::__cxx11::basic_string<char, std::char_traits<char>, std::allocator<char> > const, std::__cxx11::basic_string<char, std::char_traits<char>, std::allocator<char> > >, std::_Select1st<std::pair<std::__cxx11::basic_string<char, std::char_traits<char>, std::allocator<char> > const, std::__cxx11::basic_string<char, std::char_traits<char>, std::allocator<char> > > >, std::less<std::__cxx11::basic_string<char, std::char_traits<char>, std::allocator<char> > >, std::allocator<std::pair<std::__cxx11::basic_string<char, std::char_traits<char>, std::allocator<char> > const, std::__cxx11::basic_string<char, std::char_traits<char>, std::allocator<char> > > > >::_M_get_insert_unique_pos(std::__cxx11::basic_string<char, std::char_traits<char>, std::allocator<char> > const&)+0x56>
  102a3a:	2300      	movs	r3, #0
  102a3c:	6023      	str	r3, [r4, #0]
  102a3e:	6066      	str	r6, [r4, #4]
  102a40:	e001      	b.n	102a46 <std::_Rb_tree<std::__cxx11::basic_string<char, std::char_traits<char>, std::allocator<char> >, std::pair<std::__cxx11::basic_string<char, std::char_traits<char>, std::allocator<char> > const, std::__cxx11::basic_string<char, std::char_traits<char>, std::allocator<char> > >, std::_Select1st<std::pair<std::__cxx11::basic_string<char, std::char_traits<char>, std::allocator<char> > const, std::__cxx11::basic_string<char, std::char_traits<char>, std::allocator<char> > > >, std::less<std::__cxx11::basic_string<char, std::char_traits<char>, std::allocator<char> > >, std::allocator<std::pair<std::__cxx11::basic_string<char, std::char_traits<char>, std::allocator<char> > const, std::__cxx11::basic_string<char, std::char_traits<char>, std::allocator<char> > > > >::_M_get_insert_unique_pos(std::__cxx11::basic_string<char, std::char_traits<char>, std::allocator<char> > const&)+0x5a>
  102a42:	6025      	str	r5, [r4, #0]
  102a44:	6060      	str	r0, [r4, #4]
  102a46:	4620      	mov	r0, r4
  102a48:	e8bd 81f0 	ldmia.w	sp!, {r4, r5, r6, r7, r8, pc}

00102a4c <std::_Rb_tree_iterator<std::pair<std::__cxx11::basic_string<char, std::char_traits<char>, std::allocator<char> > const, std::__cxx11::basic_string<char, std::char_traits<char>, std::allocator<char> > > > std::_Rb_tree<std::__cxx11::basic_string<char, std::char_traits<char>, std::allocator<char> >, std::pair<std::__cxx11::basic_string<char, std::char_traits<char>, std::allocator<char> > const, std::__cxx11::basic_string<char, std::char_traits<char>, std::allocator<char> > >, std::_Select1st<std::pair<std::__cxx11::basic_string<char, std::char_traits<char>, std::allocator<char> > const, std::__cxx11::basic_string<char, std::char_traits<char>, std::allocator<char> > > >, std::less<std::__cxx11::basic_string<char, std::char_traits<char>, std::allocator<char> > >, std::allocator<std::pair<std::__cxx11::basic_string<char, std::char_traits<char>, std::allocator<char> > const, std::__cxx11::basic_string<char, std::char_traits<char>, std::allocator<char> > > > >::_M_insert_unique_<std::pair<std::__cxx11::basic_string<char, std::char_traits<char>, std::allocator<char> >, std::__cxx11::basic_string<char, std::char_traits<char>, std::allocator<char> > >, std::_Rb_tree<std::__cxx11::basic_string<char, std::char_traits<char>, std::allocator<char> >, std::pair<std::__cxx11::basic_string<char, std::char_traits<char>, std::allocator<char> > const, std::__cxx11::basic_string<char, std::char_traits<char>, std::allocator<char> > >, std::_Select1st<std::pair<std::__cxx11::basic_string<char, std::char_traits<char>, std::allocator<char> > const, std::__cxx11::basic_string<char, std::char_traits<char>, std::allocator<char> > > >, std::less<std::__cxx11::basic_string<char, std::char_traits<char>, std::allocator<char> > >, std::allocator<std::pair<std::__cxx11::basic_string<char, std::char_traits<char>, std::allocator<char> > const, std::__cxx11::basic_string<char, std::char_traits<char>, std::allocator<char> > > > >::_Alloc_node>(std::_Rb_tree_const_iterator<std::pair<std::__cxx11::basic_string<char, std::char_traits<char>, std::allocator<char> > const, std::__cxx11::basic_string<char, std::char_traits<char>, std::allocator<char> > > >, std::pair<std::__cxx11::basic_string<char, std::char_traits<char>, std::allocator<char> >, std::__cxx11::basic_string<char, std::char_traits<char>, std::allocator<char> > >&&, std::_Rb_tree<std::__cxx11::basic_string<char, std::char_traits<char>, std::allocator<char> >, std::pair<std::__cxx11::basic_string<char, std::char_traits<char>, std::allocator<char> > const, std::__cxx11::basic_string<char, std::char_traits<char>, std::allocator<char> > >, std::_Select1st<std::pair<std::__cxx11::basic_string<char, std::char_traits<char>, std::allocator<char> > const, std::__cxx11::basic_string<char, std::char_traits<char>, std::allocator<char> > > >, std::less<std::__cxx11::basic_string<char, std::char_traits<char>, std::allocator<char> > >, std::allocator<std::pair<std::__cxx11::basic_string<char, std::char_traits<char>, std::allocator<char> > const, std::__cxx11::basic_string<char, std::char_traits<char>, std::allocator<char> > > > >::_Alloc_node&)>:
  102a4c:	e92d 43f7 	stmdb	sp!, {r0, r1, r2, r4, r5, r6, r7, r8, r9, lr}
  102a50:	f100 0904 	add.w	r9, r0, #4
  102a54:	4589      	cmp	r9, r1
  102a56:	4607      	mov	r7, r0
  102a58:	4616      	mov	r6, r2
  102a5a:	460c      	mov	r4, r1
  102a5c:	d10b      	bne.n	102a76 <std::_Rb_tree_iterator<std::pair<std::__cxx11::basic_string<char, std::char_traits<char>, std::allocator<char> > const, std::__cxx11::basic_string<char, std::char_traits<char>, std::allocator<char> > > > std::_Rb_tree<std::__cxx11::basic_string<char, std::char_traits<char>, std::allocator<char> >, std::pair<std::__cxx11::basic_string<char, std::char_traits<char>, std::allocator<char> > const, std::__cxx11::basic_string<char, std::char_traits<char>, std::allocator<char> > >, std::_Select1st<std::pair<std::__cxx11::basic_string<char, std::char_traits<char>, std::allocator<char> > const, std::__cxx11::basic_string<char, std::char_traits<char>, std::allocator<char> > > >, std::less<std::__cxx11::basic_string<char, std::char_traits<char>, std::allocator<char> > >, std::allocator<std::pair<std::__cxx11::basic_string<char, std::char_traits<char>, std::allocator<char> > const, std::__cxx11::basic_string<char, std::char_traits<char>, std::allocator<char> > > > >::_M_insert_unique_<std::pair<std::__cxx11::basic_string<char, std::char_traits<char>, std::allocator<char> >, std::__cxx11::basic_string<char, std::char_traits<char>, std::allocator<char> > >, std::_Rb_tree<std::__cxx11::basic_string<char, std::char_traits<char>, std::allocator<char> >, std::pair<std::__cxx11::basic_string<char, std::char_traits<char>, std::allocator<char> > const, std::__cxx11::basic_string<char, std::char_traits<char>, std::allocator<char> > >, std::_Select1st<std::pair<std::__cxx11::basic_string<char, std::char_traits<char>, std::allocator<char> > const, std::__cxx11::basic_string<char, std::char_traits<char>, std::allocator<char> > > >, std::less<std::__cxx11::basic_string<char, std::char_traits<char>, std::allocator<char> > >, std::allocator<std::pair<std::__cxx11::basic_string<char, std::char_traits<char>, std::allocator<char> > const, std::__cxx11::basic_string<char, std::char_traits<char>, std::allocator<char> > > > >::_Alloc_node>(std::_Rb_tree_const_iterator<std::pair<std::__cxx11::basic_string<char, std::char_traits<char>, std::allocator<char> > const, std::__cxx11::basic_string<char, std::char_traits<char>, std::allocator<char> > > >, std::pair<std::__cxx11::basic_string<char, std::char_traits<char>, std::allocator<char> >, std::__cxx11::basic_string<char, std::char_traits<char>, std::allocator<char> > >&&, std::_Rb_tree<std::__cxx11::basic_string<char, std::char_traits<char>, std::allocator<char> >, std::pair<std::__cxx11::basic_string<char, std::char_traits<char>, std::allocator<char> > const, std::__cxx11::basic_string<char, std::char_traits<char>, std::allocator<char> > >, std::_Select1st<std::pair<std::__cxx11::basic_string<char, std::char_traits<char>, std::allocator<char> > const, std::__cxx11::basic_string<char, std::char_traits<char>, std::allocator<char> > > >, std::less<std::__cxx11::basic_string<char, std::char_traits<char>, std::allocator<char> > >, std::allocator<std::pair<std::__cxx11::basic_string<char, std::char_traits<char>, std::allocator<char> > const, std::__cxx11::basic_string<char, std::char_traits<char>, std::allocator<char> > > > >::_Alloc_node&)+0x2a>
  102a5e:	6943      	ldr	r3, [r0, #20]
  102a60:	2b00      	cmp	r3, #0
  102a62:	d074      	beq.n	102b4e <std::_Rb_tree_iterator<std::pair<std::__cxx11::basic_string<char, std::char_traits<char>, std::allocator<char> > const, std::__cxx11::basic_string<char, std::char_traits<char>, std::allocator<char> > > > std::_Rb_tree<std::__cxx11::basic_string<char, std::char_traits<char>, std::allocator<char> >, std::pair<std::__cxx11::basic_string<char, std::char_traits<char>, std::allocator<char> > const, std::__cxx11::basic_string<char, std::char_traits<char>, std::allocator<char> > >, std::_Select1st<std::pair<std::__cxx11::basic_string<char, std::char_traits<char>, std::allocator<char> > const, std::__cxx11::basic_string<char, std::char_traits<char>, std::allocator<char> > > >, std::less<std::__cxx11::basic_string<char, std::char_traits<char>, std::allocator<char> > >, std::allocator<std::pair<std::__cxx11::basic_string<char, std::char_traits<char>, std::allocator<char> > const, std::__cxx11::basic_string<char, std::char_traits<char>, std::allocator<char> > > > >::_M_insert_unique_<std::pair<std::__cxx11::basic_string<char, std::char_traits<char>, std::allocator<char> >, std::__cxx11::basic_string<char, std::char_traits<char>, std::allocator<char> > >, std::_Rb_tree<std::__cxx11::basic_string<char, std::char_traits<char>, std::allocator<char> >, std::pair<std::__cxx11::basic_string<char, std::char_traits<char>, std::allocator<char> > const, std::__cxx11::basic_string<char, std::char_traits<char>, std::allocator<char> > >, std::_Select1st<std::pair<std::__cxx11::basic_string<char, std::char_traits<char>, std::allocator<char> > const, std::__cxx11::basic_string<char, std::char_traits<char>, std::allocator<char> > > >, std::less<std::__cxx11::basic_string<char, std::char_traits<char>, std::allocator<char> > >, std::allocator<std::pair<std::__cxx11::basic_string<char, std::char_traits<char>, std::allocator<char> > const, std::__cxx11::basic_string<char, std::char_traits<char>, std::allocator<char> > > > >::_Alloc_node>(std::_Rb_tree_const_iterator<std::pair<std::__cxx11::basic_string<char, std::char_traits<char>, std::allocator<char> > const, std::__cxx11::basic_string<char, std::char_traits<char>, std::allocator<char> > > >, std::pair<std::__cxx11::basic_string<char, std::char_traits<char>, std::allocator<char> >, std::__cxx11::basic_string<char, std::char_traits<char>, std::allocator<char> > >&&, std::_Rb_tree<std::__cxx11::basic_string<char, std::char_traits<char>, std::allocator<char> >, std::pair<std::__cxx11::basic_string<char, std::char_traits<char>, std::allocator<char> > const, std::__cxx11::basic_string<char, std::char_traits<char>, std::allocator<char> > >, std::_Select1st<std::pair<std::__cxx11::basic_string<char, std::char_traits<char>, std::allocator<char> > const, std::__cxx11::basic_string<char, std::char_traits<char>, std::allocator<char> > > >, std::less<std::__cxx11::basic_string<char, std::char_traits<char>, std::allocator<char> > >, std::allocator<std::pair<std::__cxx11::basic_string<char, std::char_traits<char>, std::allocator<char> > const, std::__cxx11::basic_string<char, std::char_traits<char>, std::allocator<char> > > > >::_Alloc_node&)+0x102>
  102a64:	6905      	ldr	r5, [r0, #16]
  102a66:	4611      	mov	r1, r2
  102a68:	f105 0010 	add.w	r0, r5, #16
  102a6c:	f7ff ffb9 	bl	1029e2 <bool std::operator< <char, std::char_traits<char>, std::allocator<char> >(std::__cxx11::basic_string<char, std::char_traits<char>, std::allocator<char> > const&, std::__cxx11::basic_string<char, std::char_traits<char>, std::allocator<char> > const&)>
  102a70:	2800      	cmp	r0, #0
  102a72:	d174      	bne.n	102b5e <std::_Rb_tree_iterator<std::pair<std::__cxx11::basic_string<char, std::char_traits<char>, std::allocator<char> > const, std::__cxx11::basic_string<char, std::char_traits<char>, std::allocator<char> > > > std::_Rb_tree<std::__cxx11::basic_string<char, std::char_traits<char>, std::allocator<char> >, std::pair<std::__cxx11::basic_string<char, std::char_traits<char>, std::allocator<char> > const, std::__cxx11::basic_string<char, std::char_traits<char>, std::allocator<char> > >, std::_Select1st<std::pair<std::__cxx11::basic_string<char, std::char_traits<char>, std::allocator<char> > const, std::__cxx11::basic_string<char, std::char_traits<char>, std::allocator<char> > > >, std::less<std::__cxx11::basic_string<char, std::char_traits<char>, std::allocator<char> > >, std::allocator<std::pair<std::__cxx11::basic_string<char, std::char_traits<char>, std::allocator<char> > const, std::__cxx11::basic_string<char, std::char_traits<char>, std::allocator<char> > > > >::_M_insert_unique_<std::pair<std::__cxx11::basic_string<char, std::char_traits<char>, std::allocator<char> >, std::__cxx11::basic_string<char, std::char_traits<char>, std::allocator<char> > >, std::_Rb_tree<std::__cxx11::basic_string<char, std::char_traits<char>, std::allocator<char> >, std::pair<std::__cxx11::basic_string<char, std::char_traits<char>, std::allocator<char> > const, std::__cxx11::basic_string<char, std::char_traits<char>, std::allocator<char> > >, std::_Select1st<std::pair<std::__cxx11::basic_string<char, std::char_traits<char>, std::allocator<char> > const, std::__cxx11::basic_string<char, std::char_traits<char>, std::allocator<char> > > >, std::less<std::__cxx11::basic_string<char, std::char_traits<char>, std::allocator<char> > >, std::allocator<std::pair<std::__cxx11::basic_string<char, std::char_traits<char>, std::allocator<char> > const, std::__cxx11::basic_string<char, std::char_traits<char>, std::allocator<char> > > > >::_Alloc_node>(std::_Rb_tree_const_iterator<std::pair<std::__cxx11::basic_string<char, std::char_traits<char>, std::allocator<char> > const, std::__cxx11::basic_string<char, std::char_traits<char>, std::allocator<char> > > >, std::pair<std::__cxx11::basic_string<char, std::char_traits<char>, std::allocator<char> >, std::__cxx11::basic_string<char, std::char_traits<char>, std::allocator<char> > >&&, std::_Rb_tree<std::__cxx11::basic_string<char, std::char_traits<char>, std::allocator<char> >, std::pair<std::__cxx11::basic_string<char, std::char_traits<char>, std::allocator<char> > const, std::__cxx11::basic_string<char, std::char_traits<char>, std::allocator<char> > >, std::_Select1st<std::pair<std::__cxx11::basic_string<char, std::char_traits<char>, std::allocator<char> > const, std::__cxx11::basic_string<char, std::char_traits<char>, std::allocator<char> > > >, std::less<std::__cxx11::basic_string<char, std::char_traits<char>, std::allocator<char> > >, std::allocator<std::pair<std::__cxx11::basic_string<char, std::char_traits<char>, std::allocator<char> > const, std::__cxx11::basic_string<char, std::char_traits<char>, std::allocator<char> > > > >::_Alloc_node&)+0x112>
  102a74:	e06b      	b.n	102b4e <std::_Rb_tree_iterator<std::pair<std::__cxx11::basic_string<char, std::char_traits<char>, std::allocator<char> > const, std::__cxx11::basic_string<char, std::char_traits<char>, std::allocator<char> > > > std::_Rb_tree<std::__cxx11::basic_string<char, std::char_traits<char>, std::allocator<char> >, std::pair<std::__cxx11::basic_string<char, std::char_traits<char>, std::allocator<char> > const, std::__cxx11::basic_string<char, std::char_traits<char>, std::allocator<char> > >, std::_Select1st<std::pair<std::__cxx11::basic_string<char, std::char_traits<char>, std::allocator<char> > const, std::__cxx11::basic_string<char, std::char_traits<char>, std::allocator<char> > > >, std::less<std::__cxx11::basic_string<char, std::char_traits<char>, std::allocator<char> > >, std::allocator<std::pair<std::__cxx11::basic_string<char, std::char_traits<char>, std::allocator<char> > const, std::__cxx11::basic_string<char, std::char_traits<char>, std::allocator<char> > > > >::_M_insert_unique_<std::pair<std::__cxx11::basic_string<char, std::char_traits<char>, std::allocator<char> >, std::__cxx11::basic_string<char, std::char_traits<char>, std::allocator<char> > >, std::_Rb_tree<std::__cxx11::basic_string<char, std::char_traits<char>, std::allocator<char> >, std::pair<std::__cxx11::basic_string<char, std::char_traits<char>, std::allocator<char> > const, std::__cxx11::basic_string<char, std::char_traits<char>, std::allocator<char> > >, std::_Select1st<std::pair<std::__cxx11::basic_string<char, std::char_traits<char>, std::allocator<char> > const, std::__cxx11::basic_string<char, std::char_traits<char>, std::allocator<char> > > >, std::less<std::__cxx11::basic_string<char, std::char_traits<char>, std::allocator<char> > >, std::allocator<std::pair<std::__cxx11::basic_string<char, std::char_traits<char>, std::allocator<char> > const, std::__cxx11::basic_string<char, std::char_traits<char>, std::allocator<char> > > > >::_Alloc_node>(std::_Rb_tree_const_iterator<std::pair<std::__cxx11::basic_string<char, std::char_traits<char>, std::allocator<char> > const, std::__cxx11::basic_string<char, std::char_traits<char>, std::allocator<char> > > >, std::pair<std::__cxx11::basic_string<char, std::char_traits<char>, std::allocator<char> >, std::__cxx11::basic_string<char, std::char_traits<char>, std::allocator<char> > >&&, std::_Rb_tree<std::__cxx11::basic_string<char, std::char_traits<char>, std::allocator<char> >, std::pair<std::__cxx11::basic_string<char, std::char_traits<char>, std::allocator<char> > const, std::__cxx11::basic_string<char, std::char_traits<char>, std::allocator<char> > >, std::_Select1st<std::pair<std::__cxx11::basic_string<char, std::char_traits<char>, std::allocator<char> > const, std::__cxx11::basic_string<char, std::char_traits<char>, std::allocator<char> > > >, std::less<std::__cxx11::basic_string<char, std::char_traits<char>, std::allocator<char> > >, std::allocator<std::pair<std::__cxx11::basic_string<char, std::char_traits<char>, std::allocator<char> > const, std::__cxx11::basic_string<char, std::char_traits<char>, std::allocator<char> > > > >::_Alloc_node&)+0x102>
  102a76:	f101 0810 	add.w	r8, r1, #16
  102a7a:	4641      	mov	r1, r8
  102a7c:	4610      	mov	r0, r2
  102a7e:	f7ff ffb0 	bl	1029e2 <bool std::operator< <char, std::char_traits<char>, std::allocator<char> >(std::__cxx11::basic_string<char, std::char_traits<char>, std::allocator<char> > const&, std::__cxx11::basic_string<char, std::char_traits<char>, std::allocator<char> > const&)>
  102a82:	4605      	mov	r5, r0
  102a84:	b1a0      	cbz	r0, 102ab0 <std::_Rb_tree_iterator<std::pair<std::__cxx11::basic_string<char, std::char_traits<char>, std::allocator<char> > const, std::__cxx11::basic_string<char, std::char_traits<char>, std::allocator<char> > > > std::_Rb_tree<std::__cxx11::basic_string<char, std::char_traits<char>, std::allocator<char> >, std::pair<std::__cxx11::basic_string<char, std::char_traits<char>, std::allocator<char> > const, std::__cxx11::basic_string<char, std::char_traits<char>, std::allocator<char> > >, std::_Select1st<std::pair<std::__cxx11::basic_string<char, std::char_traits<char>, std::allocator<char> > const, std::__cxx11::basic_string<char, std::char_traits<char>, std::allocator<char> > > >, std::less<std::__cxx11::basic_string<char, std::char_traits<char>, std::allocator<char> > >, std::allocator<std::pair<std::__cxx11::basic_string<char, std::char_traits<char>, std::allocator<char> > const, std::__cxx11::basic_string<char, std::char_traits<char>, std::allocator<char> > > > >::_M_insert_unique_<std::pair<std::__cxx11::basic_string<char, std::char_traits<char>, std::allocator<char> >, std::__cxx11::basic_string<char, std::char_traits<char>, std::allocator<char> > >, std::_Rb_tree<std::__cxx11::basic_string<char, std::char_traits<char>, std::allocator<char> >, std::pair<std::__cxx11::basic_string<char, std::char_traits<char>, std::allocator<char> > const, std::__cxx11::basic_string<char, std::char_traits<char>, std::allocator<char> > >, std::_Select1st<std::pair<std::__cxx11::basic_string<char, std::char_traits<char>, std::allocator<char> > const, std::__cxx11::basic_string<char, std::char_traits<char>, std::allocator<char> > > >, std::less<std::__cxx11::basic_string<char, std::char_traits<char>, std::allocator<char> > >, std::allocator<std::pair<std::__cxx11::basic_string<char, std::char_traits<char>, std::allocator<char> > const, std::__cxx11::basic_string<char, std::char_traits<char>, std::allocator<char> > > > >::_Alloc_node>(std::_Rb_tree_const_iterator<std::pair<std::__cxx11::basic_string<char, std::char_traits<char>, std::allocator<char> > const, std::__cxx11::basic_string<char, std::char_traits<char>, std::allocator<char> > > >, std::pair<std::__cxx11::basic_string<char, std::char_traits<char>, std::allocator<char> >, std::__cxx11::basic_string<char, std::char_traits<char>, std::allocator<char> > >&&, std::_Rb_tree<std::__cxx11::basic_string<char, std::char_traits<char>, std::allocator<char> >, std::pair<std::__cxx11::basic_string<char, std::char_traits<char>, std::allocator<char> > const, std::__cxx11::basic_string<char, std::char_traits<char>, std::allocator<char> > >, std::_Select1st<std::pair<std::__cxx11::basic_string<char, std::char_traits<char>, std::allocator<char> > const, std::__cxx11::basic_string<char, std::char_traits<char>, std::allocator<char> > > >, std::less<std::__cxx11::basic_string<char, std::char_traits<char>, std::allocator<char> > >, std::allocator<std::pair<std::__cxx11::basic_string<char, std::char_traits<char>, std::allocator<char> > const, std::__cxx11::basic_string<char, std::char_traits<char>, std::allocator<char> > > > >::_Alloc_node&)+0x64>
  102a86:	68fb      	ldr	r3, [r7, #12]
  102a88:	42a3      	cmp	r3, r4
  102a8a:	d00f      	beq.n	102aac <std::_Rb_tree_iterator<std::pair<std::__cxx11::basic_string<char, std::char_traits<char>, std::allocator<char> > const, std::__cxx11::basic_string<char, std::char_traits<char>, std::allocator<char> > > > std::_Rb_tree<std::__cxx11::basic_string<char, std::char_traits<char>, std::allocator<char> >, std::pair<std::__cxx11::basic_string<char, std::char_traits<char>, std::allocator<char> > const, std::__cxx11::basic_string<char, std::char_traits<char>, std::allocator<char> > >, std::_Select1st<std::pair<std::__cxx11::basic_string<char, std::char_traits<char>, std::allocator<char> > const, std::__cxx11::basic_string<char, std::char_traits<char>, std::allocator<char> > > >, std::less<std::__cxx11::basic_string<char, std::char_traits<char>, std::allocator<char> > >, std::allocator<std::pair<std::__cxx11::basic_string<char, std::char_traits<char>, std::allocator<char> > const, std::__cxx11::basic_string<char, std::char_traits<char>, std::allocator<char> > > > >::_M_insert_unique_<std::pair<std::__cxx11::basic_string<char, std::char_traits<char>, std::allocator<char> >, std::__cxx11::basic_string<char, std::char_traits<char>, std::allocator<char> > >, std::_Rb_tree<std::__cxx11::basic_string<char, std::char_traits<char>, std::allocator<char> >, std::pair<std::__cxx11::basic_string<char, std::char_traits<char>, std::allocator<char> > const, std::__cxx11::basic_string<char, std::char_traits<char>, std::allocator<char> > >, std::_Select1st<std::pair<std::__cxx11::basic_string<char, std::char_traits<char>, std::allocator<char> > const, std::__cxx11::basic_string<char, std::char_traits<char>, std::allocator<char> > > >, std::less<std::__cxx11::basic_string<char, std::char_traits<char>, std::allocator<char> > >, std::allocator<std::pair<std::__cxx11::basic_string<char, std::char_traits<char>, std::allocator<char> > const, std::__cxx11::basic_string<char, std::char_traits<char>, std::allocator<char> > > > >::_Alloc_node>(std::_Rb_tree_const_iterator<std::pair<std::__cxx11::basic_string<char, std::char_traits<char>, std::allocator<char> > const, std::__cxx11::basic_string<char, std::char_traits<char>, std::allocator<char> > > >, std::pair<std::__cxx11::basic_string<char, std::char_traits<char>, std::allocator<char> >, std::__cxx11::basic_string<char, std::char_traits<char>, std::allocator<char> > >&&, std::_Rb_tree<std::__cxx11::basic_string<char, std::char_traits<char>, std::allocator<char> >, std::pair<std::__cxx11::basic_string<char, std::char_traits<char>, std::allocator<char> > const, std::__cxx11::basic_string<char, std::char_traits<char>, std::allocator<char> > >, std::_Select1st<std::pair<std::__cxx11::basic_string<char, std::char_traits<char>, std::allocator<char> > const, std::__cxx11::basic_string<char, std::char_traits<char>, std::allocator<char> > > >, std::less<std::__cxx11::basic_string<char, std::char_traits<char>, std::allocator<char> > >, std::allocator<std::pair<std::__cxx11::basic_string<char, std::char_traits<char>, std::allocator<char> > const, std::__cxx11::basic_string<char, std::char_traits<char>, std::allocator<char> > > > >::_Alloc_node&)+0x60>
  102a8c:	4620      	mov	r0, r4
  102a8e:	f00b fa7f 	bl	10df90 <std::_Rb_tree_decrement(std::_Rb_tree_node_base*)>
  102a92:	4631      	mov	r1, r6
  102a94:	4605      	mov	r5, r0
  102a96:	3010      	adds	r0, #16
  102a98:	f7ff ffa3 	bl	1029e2 <bool std::operator< <char, std::char_traits<char>, std::allocator<char> >(std::__cxx11::basic_string<char, std::char_traits<char>, std::allocator<char> > const&, std::__cxx11::basic_string<char, std::char_traits<char>, std::allocator<char> > const&)>
  102a9c:	2800      	cmp	r0, #0
  102a9e:	d056      	beq.n	102b4e <std::_Rb_tree_iterator<std::pair<std::__cxx11::basic_string<char, std::char_traits<char>, std::allocator<char> > const, std::__cxx11::basic_string<char, std::char_traits<char>, std::allocator<char> > > > std::_Rb_tree<std::__cxx11::basic_string<char, std::char_traits<char>, std::allocator<char> >, std::pair<std::__cxx11::basic_string<char, std::char_traits<char>, std::allocator<char> > const, std::__cxx11::basic_string<char, std::char_traits<char>, std::allocator<char> > >, std::_Select1st<std::pair<std::__cxx11::basic_string<char, std::char_traits<char>, std::allocator<char> > const, std::__cxx11::basic_string<char, std::char_traits<char>, std::allocator<char> > > >, std::less<std::__cxx11::basic_string<char, std::char_traits<char>, std::allocator<char> > >, std::allocator<std::pair<std::__cxx11::basic_string<char, std::char_traits<char>, std::allocator<char> > const, std::__cxx11::basic_string<char, std::char_traits<char>, std::allocator<char> > > > >::_M_insert_unique_<std::pair<std::__cxx11::basic_string<char, std::char_traits<char>, std::allocator<char> >, std::__cxx11::basic_string<char, std::char_traits<char>, std::allocator<char> > >, std::_Rb_tree<std::__cxx11::basic_string<char, std::char_traits<char>, std::allocator<char> >, std::pair<std::__cxx11::basic_string<char, std::char_traits<char>, std::allocator<char> > const, std::__cxx11::basic_string<char, std::char_traits<char>, std::allocator<char> > >, std::_Select1st<std::pair<std::__cxx11::basic_string<char, std::char_traits<char>, std::allocator<char> > const, std::__cxx11::basic_string<char, std::char_traits<char>, std::allocator<char> > > >, std::less<std::__cxx11::basic_string<char, std::char_traits<char>, std::allocator<char> > >, std::allocator<std::pair<std::__cxx11::basic_string<char, std::char_traits<char>, std::allocator<char> > const, std::__cxx11::basic_string<char, std::char_traits<char>, std::allocator<char> > > > >::_Alloc_node>(std::_Rb_tree_const_iterator<std::pair<std::__cxx11::basic_string<char, std::char_traits<char>, std::allocator<char> > const, std::__cxx11::basic_string<char, std::char_traits<char>, std::allocator<char> > > >, std::pair<std::__cxx11::basic_string<char, std::char_traits<char>, std::allocator<char> >, std::__cxx11::basic_string<char, std::char_traits<char>, std::allocator<char> > >&&, std::_Rb_tree<std::__cxx11::basic_string<char, std::char_traits<char>, std::allocator<char> >, std::pair<std::__cxx11::basic_string<char, std::char_traits<char>, std::allocator<char> > const, std::__cxx11::basic_string<char, std::char_traits<char>, std::allocator<char> > >, std::_Select1st<std::pair<std::__cxx11::basic_string<char, std::char_traits<char>, std::allocator<char> > const, std::__cxx11::basic_string<char, std::char_traits<char>, std::allocator<char> > > >, std::less<std::__cxx11::basic_string<char, std::char_traits<char>, std::allocator<char> > >, std::allocator<std::pair<std::__cxx11::basic_string<char, std::char_traits<char>, std::allocator<char> > const, std::__cxx11::basic_string<char, std::char_traits<char>, std::allocator<char> > > > >::_Alloc_node&)+0x102>
  102aa0:	68eb      	ldr	r3, [r5, #12]
  102aa2:	2b00      	cmp	r3, #0
  102aa4:	bf14      	ite	ne
  102aa6:	4625      	movne	r5, r4
  102aa8:	2400      	moveq	r4, #0
  102aaa:	e027      	b.n	102afc <std::_Rb_tree_iterator<std::pair<std::__cxx11::basic_string<char, std::char_traits<char>, std::allocator<char> > const, std::__cxx11::basic_string<char, std::char_traits<char>, std::allocator<char> > > > std::_Rb_tree<std::__cxx11::basic_string<char, std::char_traits<char>, std::allocator<char> >, std::pair<std::__cxx11::basic_string<char, std::char_traits<char>, std::allocator<char> > const, std::__cxx11::basic_string<char, std::char_traits<char>, std::allocator<char> > >, std::_Select1st<std::pair<std::__cxx11::basic_string<char, std::char_traits<char>, std::allocator<char> > const, std::__cxx11::basic_string<char, std::char_traits<char>, std::allocator<char> > > >, std::less<std::__cxx11::basic_string<char, std::char_traits<char>, std::allocator<char> > >, std::allocator<std::pair<std::__cxx11::basic_string<char, std::char_traits<char>, std::allocator<char> > const, std::__cxx11::basic_string<char, std::char_traits<char>, std::allocator<char> > > > >::_M_insert_unique_<std::pair<std::__cxx11::basic_string<char, std::char_traits<char>, std::allocator<char> >, std::__cxx11::basic_string<char, std::char_traits<char>, std::allocator<char> > >, std::_Rb_tree<std::__cxx11::basic_string<char, std::char_traits<char>, std::allocator<char> >, std::pair<std::__cxx11::basic_string<char, std::char_traits<char>, std::allocator<char> > const, std::__cxx11::basic_string<char, std::char_traits<char>, std::allocator<char> > >, std::_Select1st<std::pair<std::__cxx11::basic_string<char, std::char_traits<char>, std::allocator<char> > const, std::__cxx11::basic_string<char, std::char_traits<char>, std::allocator<char> > > >, std::less<std::__cxx11::basic_string<char, std::char_traits<char>, std::allocator<char> > >, std::allocator<std::pair<std::__cxx11::basic_string<char, std::char_traits<char>, std::allocator<char> > const, std::__cxx11::basic_string<char, std::char_traits<char>, std::allocator<char> > > > >::_Alloc_node>(std::_Rb_tree_const_iterator<std::pair<std::__cxx11::basic_string<char, std::char_traits<char>, std::allocator<char> > const, std::__cxx11::basic_string<char, std::char_traits<char>, std::allocator<char> > > >, std::pair<std::__cxx11::basic_string<char, std::char_traits<char>, std::allocator<char> >, std::__cxx11::basic_string<char, std::char_traits<char>, std::allocator<char> > >&&, std::_Rb_tree<std::__cxx11::basic_string<char, std::char_traits<char>, std::allocator<char> >, std::pair<std::__cxx11::basic_string<char, std::char_traits<char>, std::allocator<char> > const, std::__cxx11::basic_string<char, std::char_traits<char>, std::allocator<char> > >, std::_Select1st<std::pair<std::__cxx11::basic_string<char, std::char_traits<char>, std::allocator<char> > const, std::__cxx11::basic_string<char, std::char_traits<char>, std::allocator<char> > > >, std::less<std::__cxx11::basic_string<char, std::char_traits<char>, std::allocator<char> > >, std::allocator<std::pair<std::__cxx11::basic_string<char, std::char_traits<char>, std::allocator<char> > const, std::__cxx11::basic_string<char, std::char_traits<char>, std::allocator<char> > > > >::_Alloc_node&)+0xb0>
  102aac:	4625      	mov	r5, r4
  102aae:	e025      	b.n	102afc <std::_Rb_tree_iterator<std::pair<std::__cxx11::basic_string<char, std::char_traits<char>, std::allocator<char> > const, std::__cxx11::basic_string<char, std::char_traits<char>, std::allocator<char> > > > std::_Rb_tree<std::__cxx11::basic_string<char, std::char_traits<char>, std::allocator<char> >, std::pair<std::__cxx11::basic_string<char, std::char_traits<char>, std::allocator<char> > const, std::__cxx11::basic_string<char, std::char_traits<char>, std::allocator<char> > >, std::_Select1st<std::pair<std::__cxx11::basic_string<char, std::char_traits<char>, std::allocator<char> > const, std::__cxx11::basic_string<char, std::char_traits<char>, std::allocator<char> > > >, std::less<std::__cxx11::basic_string<char, std::char_traits<char>, std::allocator<char> > >, std::allocator<std::pair<std::__cxx11::basic_string<char, std::char_traits<char>, std::allocator<char> > const, std::__cxx11::basic_string<char, std::char_traits<char>, std::allocator<char> > > > >::_M_insert_unique_<std::pair<std::__cxx11::basic_string<char, std::char_traits<char>, std::allocator<char> >, std::__cxx11::basic_string<char, std::char_traits<char>, std::allocator<char> > >, std::_Rb_tree<std::__cxx11::basic_string<char, std::char_traits<char>, std::allocator<char> >, std::pair<std::__cxx11::basic_string<char, std::char_traits<char>, std::allocator<char> > const, std::__cxx11::basic_string<char, std::char_traits<char>, std::allocator<char> > >, std::_Select1st<std::pair<std::__cxx11::basic_string<char, std::char_traits<char>, std::allocator<char> > const, std::__cxx11::basic_string<char, std::char_traits<char>, std::allocator<char> > > >, std::less<std::__cxx11::basic_string<char, std::char_traits<char>, std::allocator<char> > >, std::allocator<std::pair<std::__cxx11::basic_string<char, std::char_traits<char>, std::allocator<char> > const, std::__cxx11::basic_string<char, std::char_traits<char>, std::allocator<char> > > > >::_Alloc_node>(std::_Rb_tree_const_iterator<std::pair<std::__cxx11::basic_string<char, std::char_traits<char>, std::allocator<char> > const, std::__cxx11::basic_string<char, std::char_traits<char>, std::allocator<char> > > >, std::pair<std::__cxx11::basic_string<char, std::char_traits<char>, std::allocator<char> >, std::__cxx11::basic_string<char, std::char_traits<char>, std::allocator<char> > >&&, std::_Rb_tree<std::__cxx11::basic_string<char, std::char_traits<char>, std::allocator<char> >, std::pair<std::__cxx11::basic_string<char, std::char_traits<char>, std::allocator<char> > const, std::__cxx11::basic_string<char, std::char_traits<char>, std::allocator<char> > >, std::_Select1st<std::pair<std::__cxx11::basic_string<char, std::char_traits<char>, std::allocator<char> > const, std::__cxx11::basic_string<char, std::char_traits<char>, std::allocator<char> > > >, std::less<std::__cxx11::basic_string<char, std::char_traits<char>, std::allocator<char> > >, std::allocator<std::pair<std::__cxx11::basic_string<char, std::char_traits<char>, std::allocator<char> > const, std::__cxx11::basic_string<char, std::char_traits<char>, std::allocator<char> > > > >::_Alloc_node&)+0xb0>
  102ab0:	4631      	mov	r1, r6
  102ab2:	4640      	mov	r0, r8
  102ab4:	f7ff ff95 	bl	1029e2 <bool std::operator< <char, std::char_traits<char>, std::allocator<char> >(std::__cxx11::basic_string<char, std::char_traits<char>, std::allocator<char> > const&, std::__cxx11::basic_string<char, std::char_traits<char>, std::allocator<char> > const&)>
  102ab8:	2800      	cmp	r0, #0
  102aba:	d044      	beq.n	102b46 <std::_Rb_tree_iterator<std::pair<std::__cxx11::basic_string<char, std::char_traits<char>, std::allocator<char> > const, std::__cxx11::basic_string<char, std::char_traits<char>, std::allocator<char> > > > std::_Rb_tree<std::__cxx11::basic_string<char, std::char_traits<char>, std::allocator<char> >, std::pair<std::__cxx11::basic_string<char, std::char_traits<char>, std::allocator<char> > const, std::__cxx11::basic_string<char, std::char_traits<char>, std::allocator<char> > >, std::_Select1st<std::pair<std::__cxx11::basic_string<char, std::char_traits<char>, std::allocator<char> > const, std::__cxx11::basic_string<char, std::char_traits<char>, std::allocator<char> > > >, std::less<std::__cxx11::basic_string<char, std::char_traits<char>, std::allocator<char> > >, std::allocator<std::pair<std::__cxx11::basic_string<char, std::char_traits<char>, std::allocator<char> > const, std::__cxx11::basic_string<char, std::char_traits<char>, std::allocator<char> > > > >::_M_insert_unique_<std::pair<std::__cxx11::basic_string<char, std::char_traits<char>, std::allocator<char> >, std::__cxx11::basic_string<char, std::char_traits<char>, std::allocator<char> > >, std::_Rb_tree<std::__cxx11::basic_string<char, std::char_traits<char>, std::allocator<char> >, std::pair<std::__cxx11::basic_string<char, std::char_traits<char>, std::allocator<char> > const, std::__cxx11::basic_string<char, std::char_traits<char>, std::allocator<char> > >, std::_Select1st<std::pair<std::__cxx11::basic_string<char, std::char_traits<char>, std::allocator<char> > const, std::__cxx11::basic_string<char, std::char_traits<char>, std::allocator<char> > > >, std::less<std::__cxx11::basic_string<char, std::char_traits<char>, std::allocator<char> > >, std::allocator<std::pair<std::__cxx11::basic_string<char, std::char_traits<char>, std::allocator<char> > const, std::__cxx11::basic_string<char, std::char_traits<char>, std::allocator<char> > > > >::_Alloc_node>(std::_Rb_tree_const_iterator<std::pair<std::__cxx11::basic_string<char, std::char_traits<char>, std::allocator<char> > const, std::__cxx11::basic_string<char, std::char_traits<char>, std::allocator<char> > > >, std::pair<std::__cxx11::basic_string<char, std::char_traits<char>, std::allocator<char> >, std::__cxx11::basic_string<char, std::char_traits<char>, std::allocator<char> > >&&, std::_Rb_tree<std::__cxx11::basic_string<char, std::char_traits<char>, std::allocator<char> >, std::pair<std::__cxx11::basic_string<char, std::char_traits<char>, std::allocator<char> > const, std::__cxx11::basic_string<char, std::char_traits<char>, std::allocator<char> > >, std::_Select1st<std::pair<std::__cxx11::basic_string<char, std::char_traits<char>, std::allocator<char> > const, std::__cxx11::basic_string<char, std::char_traits<char>, std::allocator<char> > > >, std::less<std::__cxx11::basic_string<char, std::char_traits<char>, std::allocator<char> > >, std::allocator<std::pair<std::__cxx11::basic_string<char, std::char_traits<char>, std::allocator<char> > const, std::__cxx11::basic_string<char, std::char_traits<char>, std::allocator<char> > > > >::_Alloc_node&)+0xfa>
  102abc:	693b      	ldr	r3, [r7, #16]
  102abe:	42a3      	cmp	r3, r4
  102ac0:	d019      	beq.n	102af6 <std::_Rb_tree_iterator<std::pair<std::__cxx11::basic_string<char, std::char_traits<char>, std::allocator<char> > const, std::__cxx11::basic_string<char, std::char_traits<char>, std::allocator<char> > > > std::_Rb_tree<std::__cxx11::basic_string<char, std::char_traits<char>, std::allocator<char> >, std::pair<std::__cxx11::basic_string<char, std::char_traits<char>, std::allocator<char> > const, std::__cxx11::basic_string<char, std::char_traits<char>, std::allocator<char> > >, std::_Select1st<std::pair<std::__cxx11::basic_string<char, std::char_traits<char>, std::allocator<char> > const, std::__cxx11::basic_string<char, std::char_traits<char>, std::allocator<char> > > >, std::less<std::__cxx11::basic_string<char, std::char_traits<char>, std::allocator<char> > >, std::allocator<std::pair<std::__cxx11::basic_string<char, std::char_traits<char>, std::allocator<char> > const, std::__cxx11::basic_string<char, std::char_traits<char>, std::allocator<char> > > > >::_M_insert_unique_<std::pair<std::__cxx11::basic_string<char, std::char_traits<char>, std::allocator<char> >, std::__cxx11::basic_string<char, std::char_traits<char>, std::allocator<char> > >, std::_Rb_tree<std::__cxx11::basic_string<char, std::char_traits<char>, std::allocator<char> >, std::pair<std::__cxx11::basic_string<char, std::char_traits<char>, std::allocator<char> > const, std::__cxx11::basic_string<char, std::char_traits<char>, std::allocator<char> > >, std::_Select1st<std::pair<std::__cxx11::basic_string<char, std::char_traits<char>, std::allocator<char> > const, std::__cxx11::basic_string<char, std::char_traits<char>, std::allocator<char> > > >, std::less<std::__cxx11::basic_string<char, std::char_traits<char>, std::allocator<char> > >, std::allocator<std::pair<std::__cxx11::basic_string<char, std::char_traits<char>, std::allocator<char> > const, std::__cxx11::basic_string<char, std::char_traits<char>, std::allocator<char> > > > >::_Alloc_node>(std::_Rb_tree_const_iterator<std::pair<std::__cxx11::basic_string<char, std::char_traits<char>, std::allocator<char> > const, std::__cxx11::basic_string<char, std::char_traits<char>, std::allocator<char> > > >, std::pair<std::__cxx11::basic_string<char, std::char_traits<char>, std::allocator<char> >, std::__cxx11::basic_string<char, std::char_traits<char>, std::allocator<char> > >&&, std::_Rb_tree<std::__cxx11::basic_string<char, std::char_traits<char>, std::allocator<char> >, std::pair<std::__cxx11::basic_string<char, std::char_traits<char>, std::allocator<char> > const, std::__cxx11::basic_string<char, std::char_traits<char>, std::allocator<char> > >, std::_Select1st<std::pair<std::__cxx11::basic_string<char, std::char_traits<char>, std::allocator<char> > const, std::__cxx11::basic_string<char, std::char_traits<char>, std::allocator<char> > > >, std::less<std::__cxx11::basic_string<char, std::char_traits<char>, std::allocator<char> > >, std::allocator<std::pair<std::__cxx11::basic_string<char, std::char_traits<char>, std::allocator<char> > const, std::__cxx11::basic_string<char, std::char_traits<char>, std::allocator<char> > > > >::_Alloc_node&)+0xaa>
  102ac2:	4620      	mov	r0, r4
  102ac4:	f00b fa51 	bl	10df6a <std::_Rb_tree_increment(std::_Rb_tree_node_base*)>
  102ac8:	4680      	mov	r8, r0
  102aca:	f100 0110 	add.w	r1, r0, #16
  102ace:	4630      	mov	r0, r6
  102ad0:	f7ff ff87 	bl	1029e2 <bool std::operator< <char, std::char_traits<char>, std::allocator<char> >(std::__cxx11::basic_string<char, std::char_traits<char>, std::allocator<char> > const&, std::__cxx11::basic_string<char, std::char_traits<char>, std::allocator<char> > const&)>
  102ad4:	b130      	cbz	r0, 102ae4 <std::_Rb_tree_iterator<std::pair<std::__cxx11::basic_string<char, std::char_traits<char>, std::allocator<char> > const, std::__cxx11::basic_string<char, std::char_traits<char>, std::allocator<char> > > > std::_Rb_tree<std::__cxx11::basic_string<char, std::char_traits<char>, std::allocator<char> >, std::pair<std::__cxx11::basic_string<char, std::char_traits<char>, std::allocator<char> > const, std::__cxx11::basic_string<char, std::char_traits<char>, std::allocator<char> > >, std::_Select1st<std::pair<std::__cxx11::basic_string<char, std::char_traits<char>, std::allocator<char> > const, std::__cxx11::basic_string<char, std::char_traits<char>, std::allocator<char> > > >, std::less<std::__cxx11::basic_string<char, std::char_traits<char>, std::allocator<char> > >, std::allocator<std::pair<std::__cxx11::basic_string<char, std::char_traits<char>, std::allocator<char> > const, std::__cxx11::basic_string<char, std::char_traits<char>, std::allocator<char> > > > >::_M_insert_unique_<std::pair<std::__cxx11::basic_string<char, std::char_traits<char>, std::allocator<char> >, std::__cxx11::basic_string<char, std::char_traits<char>, std::allocator<char> > >, std::_Rb_tree<std::__cxx11::basic_string<char, std::char_traits<char>, std::allocator<char> >, std::pair<std::__cxx11::basic_string<char, std::char_traits<char>, std::allocator<char> > const, std::__cxx11::basic_string<char, std::char_traits<char>, std::allocator<char> > >, std::_Select1st<std::pair<std::__cxx11::basic_string<char, std::char_traits<char>, std::allocator<char> > const, std::__cxx11::basic_string<char, std::char_traits<char>, std::allocator<char> > > >, std::less<std::__cxx11::basic_string<char, std::char_traits<char>, std::allocator<char> > >, std::allocator<std::pair<std::__cxx11::basic_string<char, std::char_traits<char>, std::allocator<char> > const, std::__cxx11::basic_string<char, std::char_traits<char>, std::allocator<char> > > > >::_Alloc_node>(std::_Rb_tree_const_iterator<std::pair<std::__cxx11::basic_string<char, std::char_traits<char>, std::allocator<char> > const, std::__cxx11::basic_string<char, std::char_traits<char>, std::allocator<char> > > >, std::pair<std::__cxx11::basic_string<char, std::char_traits<char>, std::allocator<char> >, std::__cxx11::basic_string<char, std::char_traits<char>, std::allocator<char> > >&&, std::_Rb_tree<std::__cxx11::basic_string<char, std::char_traits<char>, std::allocator<char> >, std::pair<std::__cxx11::basic_string<char, std::char_traits<char>, std::allocator<char> > const, std::__cxx11::basic_string<char, std::char_traits<char>, std::allocator<char> > >, std::_Select1st<std::pair<std::__cxx11::basic_string<char, std::char_traits<char>, std::allocator<char> > const, std::__cxx11::basic_string<char, std::char_traits<char>, std::allocator<char> > > >, std::less<std::__cxx11::basic_string<char, std::char_traits<char>, std::allocator<char> > >, std::allocator<std::pair<std::__cxx11::basic_string<char, std::char_traits<char>, std::allocator<char> > const, std::__cxx11::basic_string<char, std::char_traits<char>, std::allocator<char> > > > >::_Alloc_node&)+0x98>
  102ad6:	68e3      	ldr	r3, [r4, #12]
  102ad8:	2b00      	cmp	r3, #0
  102ada:	bf14      	ite	ne
  102adc:	4644      	movne	r4, r8
  102ade:	f04f 0800 	moveq.w	r8, #0
  102ae2:	e009      	b.n	102af8 <std::_Rb_tree_iterator<std::pair<std::__cxx11::basic_string<char, std::char_traits<char>, std::allocator<char> > const, std::__cxx11::basic_string<char, std::char_traits<char>, std::allocator<char> > > > std::_Rb_tree<std::__cxx11::basic_string<char, std::char_traits<char>, std::allocator<char> >, std::pair<std::__cxx11::basic_string<char, std::char_traits<char>, std::allocator<char> > const, std::__cxx11::basic_string<char, std::char_traits<char>, std::allocator<char> > >, std::_Select1st<std::pair<std::__cxx11::basic_string<char, std::char_traits<char>, std::allocator<char> > const, std::__cxx11::basic_string<char, std::char_traits<char>, std::allocator<char> > > >, std::less<std::__cxx11::basic_string<char, std::char_traits<char>, std::allocator<char> > >, std::allocator<std::pair<std::__cxx11::basic_string<char, std::char_traits<char>, std::allocator<char> > const, std::__cxx11::basic_string<char, std::char_traits<char>, std::allocator<char> > > > >::_M_insert_unique_<std::pair<std::__cxx11::basic_string<char, std::char_traits<char>, std::allocator<char> >, std::__cxx11::basic_string<char, std::char_traits<char>, std::allocator<char> > >, std::_Rb_tree<std::__cxx11::basic_string<char, std::char_traits<char>, std::allocator<char> >, std::pair<std::__cxx11::basic_string<char, std::char_traits<char>, std::allocator<char> > const, std::__cxx11::basic_string<char, std::char_traits<char>, std::allocator<char> > >, std::_Select1st<std::pair<std::__cxx11::basic_string<char, std::char_traits<char>, std::allocator<char> > const, std::__cxx11::basic_string<char, std::char_traits<char>, std::allocator<char> > > >, std::less<std::__cxx11::basic_string<char, std::char_traits<char>, std::allocator<char> > >, std::allocator<std::pair<std::__cxx11::basic_string<char, std::char_traits<char>, std::allocator<char> > const, std::__cxx11::basic_string<char, std::char_traits<char>, std::allocator<char> > > > >::_Alloc_node>(std::_Rb_tree_const_iterator<std::pair<std::__cxx11::basic_string<char, std::char_traits<char>, std::allocator<char> > const, std::__cxx11::basic_string<char, std::char_traits<char>, std::allocator<char> > > >, std::pair<std::__cxx11::basic_string<char, std::char_traits<char>, std::allocator<char> >, std::__cxx11::basic_string<char, std::char_traits<char>, std::allocator<char> > >&&, std::_Rb_tree<std::__cxx11::basic_string<char, std::char_traits<char>, std::allocator<char> >, std::pair<std::__cxx11::basic_string<char, std::char_traits<char>, std::allocator<char> > const, std::__cxx11::basic_string<char, std::char_traits<char>, std::allocator<char> > >, std::_Select1st<std::pair<std::__cxx11::basic_string<char, std::char_traits<char>, std::allocator<char> > const, std::__cxx11::basic_string<char, std::char_traits<char>, std::allocator<char> > > >, std::less<std::__cxx11::basic_string<char, std::char_traits<char>, std::allocator<char> > >, std::allocator<std::pair<std::__cxx11::basic_string<char, std::char_traits<char>, std::allocator<char> > const, std::__cxx11::basic_string<char, std::char_traits<char>, std::allocator<char> > > > >::_Alloc_node&)+0xac>
  102ae4:	4632      	mov	r2, r6
  102ae6:	4639      	mov	r1, r7
  102ae8:	4668      	mov	r0, sp
  102aea:	f7ff ff7f 	bl	1029ec <std::_Rb_tree<std::__cxx11::basic_string<char, std::char_traits<char>, std::allocator<char> >, std::pair<std::__cxx11::basic_string<char, std::char_traits<char>, std::allocator<char> > const, std::__cxx11::basic_string<char, std::char_traits<char>, std::allocator<char> > >, std::_Select1st<std::pair<std::__cxx11::basic_string<char, std::char_traits<char>, std::allocator<char> > const, std::__cxx11::basic_string<char, std::char_traits<char>, std::allocator<char> > > >, std::less<std::__cxx11::basic_string<char, std::char_traits<char>, std::allocator<char> > >, std::allocator<std::pair<std::__cxx11::basic_string<char, std::char_traits<char>, std::allocator<char> > const, std::__cxx11::basic_string<char, std::char_traits<char>, std::allocator<char> > > > >::_M_get_insert_unique_pos(std::__cxx11::basic_string<char, std::char_traits<char>, std::allocator<char> > const&)>
  102aee:	f8dd 8000 	ldr.w	r8, [sp]
  102af2:	9c01      	ldr	r4, [sp, #4]
  102af4:	e000      	b.n	102af8 <std::_Rb_tree_iterator<std::pair<std::__cxx11::basic_string<char, std::char_traits<char>, std::allocator<char> > const, std::__cxx11::basic_string<char, std::char_traits<char>, std::allocator<char> > > > std::_Rb_tree<std::__cxx11::basic_string<char, std::char_traits<char>, std::allocator<char> >, std::pair<std::__cxx11::basic_string<char, std::char_traits<char>, std::allocator<char> > const, std::__cxx11::basic_string<char, std::char_traits<char>, std::allocator<char> > >, std::_Select1st<std::pair<std::__cxx11::basic_string<char, std::char_traits<char>, std::allocator<char> > const, std::__cxx11::basic_string<char, std::char_traits<char>, std::allocator<char> > > >, std::less<std::__cxx11::basic_string<char, std::char_traits<char>, std::allocator<char> > >, std::allocator<std::pair<std::__cxx11::basic_string<char, std::char_traits<char>, std::allocator<char> > const, std::__cxx11::basic_string<char, std::char_traits<char>, std::allocator<char> > > > >::_M_insert_unique_<std::pair<std::__cxx11::basic_string<char, std::char_traits<char>, std::allocator<char> >, std::__cxx11::basic_string<char, std::char_traits<char>, std::allocator<char> > >, std::_Rb_tree<std::__cxx11::basic_string<char, std::char_traits<char>, std::allocator<char> >, std::pair<std::__cxx11::basic_string<char, std::char_traits<char>, std::allocator<char> > const, std::__cxx11::basic_string<char, std::char_traits<char>, std::allocator<char> > >, std::_Select1st<std::pair<std::__cxx11::basic_string<char, std::char_traits<char>, std::allocator<char> > const, std::__cxx11::basic_string<char, std::char_traits<char>, std::allocator<char> > > >, std::less<std::__cxx11::basic_string<char, std::char_traits<char>, std::allocator<char> > >, std::allocator<std::pair<std::__cxx11::basic_string<char, std::char_traits<char>, std::allocator<char> > const, std::__cxx11::basic_string<char, std::char_traits<char>, std::allocator<char> > > > >::_Alloc_node>(std::_Rb_tree_const_iterator<std::pair<std::__cxx11::basic_string<char, std::char_traits<char>, std::allocator<char> > const, std::__cxx11::basic_string<char, std::char_traits<char>, std::allocator<char> > > >, std::pair<std::__cxx11::basic_string<char, std::char_traits<char>, std::allocator<char> >, std::__cxx11::basic_string<char, std::char_traits<char>, std::allocator<char> > >&&, std::_Rb_tree<std::__cxx11::basic_string<char, std::char_traits<char>, std::allocator<char> >, std::pair<std::__cxx11::basic_string<char, std::char_traits<char>, std::allocator<char> > const, std::__cxx11::basic_string<char, std::char_traits<char>, std::allocator<char> > >, std::_Select1st<std::pair<std::__cxx11::basic_string<char, std::char_traits<char>, std::allocator<char> > const, std::__cxx11::basic_string<char, std::char_traits<char>, std::allocator<char> > > >, std::less<std::__cxx11::basic_string<char, std::char_traits<char>, std::allocator<char> > >, std::allocator<std::pair<std::__cxx11::basic_string<char, std::char_traits<char>, std::allocator<char> > const, std::__cxx11::basic_string<char, std::char_traits<char>, std::allocator<char> > > > >::_Alloc_node&)+0xac>
  102af6:	46a8      	mov	r8, r5
  102af8:	4625      	mov	r5, r4
  102afa:	4644      	mov	r4, r8
  102afc:	b31d      	cbz	r5, 102b46 <std::_Rb_tree_iterator<std::pair<std::__cxx11::basic_string<char, std::char_traits<char>, std::allocator<char> > const, std::__cxx11::basic_string<char, std::char_traits<char>, std::allocator<char> > > > std::_Rb_tree<std::__cxx11::basic_string<char, std::char_traits<char>, std::allocator<char> >, std::pair<std::__cxx11::basic_string<char, std::char_traits<char>, std::allocator<char> > const, std::__cxx11::basic_string<char, std::char_traits<char>, std::allocator<char> > >, std::_Select1st<std::pair<std::__cxx11::basic_string<char, std::char_traits<char>, std::allocator<char> > const, std::__cxx11::basic_string<char, std::char_traits<char>, std::allocator<char> > > >, std::less<std::__cxx11::basic_string<char, std::char_traits<char>, std::allocator<char> > >, std::allocator<std::pair<std::__cxx11::basic_string<char, std::char_traits<char>, std::allocator<char> > const, std::__cxx11::basic_string<char, std::char_traits<char>, std::allocator<char> > > > >::_M_insert_unique_<std::pair<std::__cxx11::basic_string<char, std::char_traits<char>, std::allocator<char> >, std::__cxx11::basic_string<char, std::char_traits<char>, std::allocator<char> > >, std::_Rb_tree<std::__cxx11::basic_string<char, std::char_traits<char>, std::allocator<char> >, std::pair<std::__cxx11::basic_string<char, std::char_traits<char>, std::allocator<char> > const, std::__cxx11::basic_string<char, std::char_traits<char>, std::allocator<char> > >, std::_Select1st<std::pair<std::__cxx11::basic_string<char, std::char_traits<char>, std::allocator<char> > const, std::__cxx11::basic_string<char, std::char_traits<char>, std::allocator<char> > > >, std::less<std::__cxx11::basic_string<char, std::char_traits<char>, std::allocator<char> > >, std::allocator<std::pair<std::__cxx11::basic_string<char, std::char_traits<char>, std::allocator<char> > const, std::__cxx11::basic_string<char, std::char_traits<char>, std::allocator<char> > > > >::_Alloc_node>(std::_Rb_tree_const_iterator<std::pair<std::__cxx11::basic_string<char, std::char_traits<char>, std::allocator<char> > const, std::__cxx11::basic_string<char, std::char_traits<char>, std::allocator<char> > > >, std::pair<std::__cxx11::basic_string<char, std::char_traits<char>, std::allocator<char> >, std::__cxx11::basic_string<char, std::char_traits<char>, std::allocator<char> > >&&, std::_Rb_tree<std::__cxx11::basic_string<char, std::char_traits<char>, std::allocator<char> >, std::pair<std::__cxx11::basic_string<char, std::char_traits<char>, std::allocator<char> > const, std::__cxx11::basic_string<char, std::char_traits<char>, std::allocator<char> > >, std::_Select1st<std::pair<std::__cxx11::basic_string<char, std::char_traits<char>, std::allocator<char> > const, std::__cxx11::basic_string<char, std::char_traits<char>, std::allocator<char> > > >, std::less<std::__cxx11::basic_string<char, std::char_traits<char>, std::allocator<char> > >, std::allocator<std::pair<std::__cxx11::basic_string<char, std::char_traits<char>, std::allocator<char> > const, std::__cxx11::basic_string<char, std::char_traits<char>, std::allocator<char> > > > >::_Alloc_node&)+0xfa>
  102afe:	b944      	cbnz	r4, 102b12 <std::_Rb_tree_iterator<std::pair<std::__cxx11::basic_string<char, std::char_traits<char>, std::allocator<char> > const, std::__cxx11::basic_string<char, std::char_traits<char>, std::allocator<char> > > > std::_Rb_tree<std::__cxx11::basic_string<char, std::char_traits<char>, std::allocator<char> >, std::pair<std::__cxx11::basic_string<char, std::char_traits<char>, std::allocator<char> > const, std::__cxx11::basic_string<char, std::char_traits<char>, std::allocator<char> > >, std::_Select1st<std::pair<std::__cxx11::basic_string<char, std::char_traits<char>, std::allocator<char> > const, std::__cxx11::basic_string<char, std::char_traits<char>, std::allocator<char> > > >, std::less<std::__cxx11::basic_string<char, std::char_traits<char>, std::allocator<char> > >, std::allocator<std::pair<std::__cxx11::basic_string<char, std::char_traits<char>, std::allocator<char> > const, std::__cxx11::basic_string<char, std::char_traits<char>, std::allocator<char> > > > >::_M_insert_unique_<std::pair<std::__cxx11::basic_string<char, std::char_traits<char>, std::allocator<char> >, std::__cxx11::basic_string<char, std::char_traits<char>, std::allocator<char> > >, std::_Rb_tree<std::__cxx11::basic_string<char, std::char_traits<char>, std::allocator<char> >, std::pair<std::__cxx11::basic_string<char, std::char_traits<char>, std::allocator<char> > const, std::__cxx11::basic_string<char, std::char_traits<char>, std::allocator<char> > >, std::_Select1st<std::pair<std::__cxx11::basic_string<char, std::char_traits<char>, std::allocator<char> > const, std::__cxx11::basic_string<char, std::char_traits<char>, std::allocator<char> > > >, std::less<std::__cxx11::basic_string<char, std::char_traits<char>, std::allocator<char> > >, std::allocator<std::pair<std::__cxx11::basic_string<char, std::char_traits<char>, std::allocator<char> > const, std::__cxx11::basic_string<char, std::char_traits<char>, std::allocator<char> > > > >::_Alloc_node>(std::_Rb_tree_const_iterator<std::pair<std::__cxx11::basic_string<char, std::char_traits<char>, std::allocator<char> > const, std::__cxx11::basic_string<char, std::char_traits<char>, std::allocator<char> > > >, std::pair<std::__cxx11::basic_string<char, std::char_traits<char>, std::allocator<char> >, std::__cxx11::basic_string<char, std::char_traits<char>, std::allocator<char> > >&&, std::_Rb_tree<std::__cxx11::basic_string<char, std::char_traits<char>, std::allocator<char> >, std::pair<std::__cxx11::basic_string<char, std::char_traits<char>, std::allocator<char> > const, std::__cxx11::basic_string<char, std::char_traits<char>, std::allocator<char> > >, std::_Select1st<std::pair<std::__cxx11::basic_string<char, std::char_traits<char>, std::allocator<char> > const, std::__cxx11::basic_string<char, std::char_traits<char>, std::allocator<char> > > >, std::less<std::__cxx11::basic_string<char, std::char_traits<char>, std::allocator<char> > >, std::allocator<std::pair<std::__cxx11::basic_string<char, std::char_traits<char>, std::allocator<char> > const, std::__cxx11::basic_string<char, std::char_traits<char>, std::allocator<char> > > > >::_Alloc_node&)+0xc6>
  102b00:	45a9      	cmp	r9, r5
  102b02:	d006      	beq.n	102b12 <std::_Rb_tree_iterator<std::pair<std::__cxx11::basic_string<char, std::char_traits<char>, std::allocator<char> > const, std::__cxx11::basic_string<char, std::char_traits<char>, std::allocator<char> > > > std::_Rb_tree<std::__cxx11::basic_string<char, std::char_traits<char>, std::allocator<char> >, std::pair<std::__cxx11::basic_string<char, std::char_traits<char>, std::allocator<char> > const, std::__cxx11::basic_string<char, std::char_traits<char>, std::allocator<char> > >, std::_Select1st<std::pair<std::__cxx11::basic_string<char, std::char_traits<char>, std::allocator<char> > const, std::__cxx11::basic_string<char, std::char_traits<char>, std::allocator<char> > > >, std::less<std::__cxx11::basic_string<char, std::char_traits<char>, std::allocator<char> > >, std::allocator<std::pair<std::__cxx11::basic_string<char, std::char_traits<char>, std::allocator<char> > const, std::__cxx11::basic_string<char, std::char_traits<char>, std::allocator<char> > > > >::_M_insert_unique_<std::pair<std::__cxx11::basic_string<char, std::char_traits<char>, std::allocator<char> >, std::__cxx11::basic_string<char, std::char_traits<char>, std::allocator<char> > >, std::_Rb_tree<std::__cxx11::basic_string<char, std::char_traits<char>, std::allocator<char> >, std::pair<std::__cxx11::basic_string<char, std::char_traits<char>, std::allocator<char> > const, std::__cxx11::basic_string<char, std::char_traits<char>, std::allocator<char> > >, std::_Select1st<std::pair<std::__cxx11::basic_string<char, std::char_traits<char>, std::allocator<char> > const, std::__cxx11::basic_string<char, std::char_traits<char>, std::allocator<char> > > >, std::less<std::__cxx11::basic_string<char, std::char_traits<char>, std::allocator<char> > >, std::allocator<std::pair<std::__cxx11::basic_string<char, std::char_traits<char>, std::allocator<char> > const, std::__cxx11::basic_string<char, std::char_traits<char>, std::allocator<char> > > > >::_Alloc_node>(std::_Rb_tree_const_iterator<std::pair<std::__cxx11::basic_string<char, std::char_traits<char>, std::allocator<char> > const, std::__cxx11::basic_string<char, std::char_traits<char>, std::allocator<char> > > >, std::pair<std::__cxx11::basic_string<char, std::char_traits<char>, std::allocator<char> >, std::__cxx11::basic_string<char, std::char_traits<char>, std::allocator<char> > >&&, std::_Rb_tree<std::__cxx11::basic_string<char, std::char_traits<char>, std::allocator<char> >, std::pair<std::__cxx11::basic_string<char, std::char_traits<char>, std::allocator<char> > const, std::__cxx11::basic_string<char, std::char_traits<char>, std::allocator<char> > >, std::_Select1st<std::pair<std::__cxx11::basic_string<char, std::char_traits<char>, std::allocator<char> > const, std::__cxx11::basic_string<char, std::char_traits<char>, std::allocator<char> > > >, std::less<std::__cxx11::basic_string<char, std::char_traits<char>, std::allocator<char> > >, std::allocator<std::pair<std::__cxx11::basic_string<char, std::char_traits<char>, std::allocator<char> > const, std::__cxx11::basic_string<char, std::char_traits<char>, std::allocator<char> > > > >::_Alloc_node&)+0xc6>
  102b04:	f105 0110 	add.w	r1, r5, #16
  102b08:	4630      	mov	r0, r6
  102b0a:	f7ff ff6a 	bl	1029e2 <bool std::operator< <char, std::char_traits<char>, std::allocator<char> >(std::__cxx11::basic_string<char, std::char_traits<char>, std::allocator<char> > const&, std::__cxx11::basic_string<char, std::char_traits<char>, std::allocator<char> > const&)>
  102b0e:	4680      	mov	r8, r0
  102b10:	e001      	b.n	102b16 <std::_Rb_tree_iterator<std::pair<std::__cxx11::basic_string<char, std::char_traits<char>, std::allocator<char> > const, std::__cxx11::basic_string<char, std::char_traits<char>, std::allocator<char> > > > std::_Rb_tree<std::__cxx11::basic_string<char, std::char_traits<char>, std::allocator<char> >, std::pair<std::__cxx11::basic_string<char, std::char_traits<char>, std::allocator<char> > const, std::__cxx11::basic_string<char, std::char_traits<char>, std::allocator<char> > >, std::_Select1st<std::pair<std::__cxx11::basic_string<char, std::char_traits<char>, std::allocator<char> > const, std::__cxx11::basic_string<char, std::char_traits<char>, std::allocator<char> > > >, std::less<std::__cxx11::basic_string<char, std::char_traits<char>, std::allocator<char> > >, std::allocator<std::pair<std::__cxx11::basic_string<char, std::char_traits<char>, std::allocator<char> > const, std::__cxx11::basic_string<char, std::char_traits<char>, std::allocator<char> > > > >::_M_insert_unique_<std::pair<std::__cxx11::basic_string<char, std::char_traits<char>, std::allocator<char> >, std::__cxx11::basic_string<char, std::char_traits<char>, std::allocator<char> > >, std::_Rb_tree<std::__cxx11::basic_string<char, std::char_traits<char>, std::allocator<char> >, std::pair<std::__cxx11::basic_string<char, std::char_traits<char>, std::allocator<char> > const, std::__cxx11::basic_string<char, std::char_traits<char>, std::allocator<char> > >, std::_Select1st<std::pair<std::__cxx11::basic_string<char, std::char_traits<char>, std::allocator<char> > const, std::__cxx11::basic_string<char, std::char_traits<char>, std::allocator<char> > > >, std::less<std::__cxx11::basic_string<char, std::char_traits<char>, std::allocator<char> > >, std::allocator<std::pair<std::__cxx11::basic_string<char, std::char_traits<char>, std::allocator<char> > const, std::__cxx11::basic_string<char, std::char_traits<char>, std::allocator<char> > > > >::_Alloc_node>(std::_Rb_tree_const_iterator<std::pair<std::__cxx11::basic_string<char, std::char_traits<char>, std::allocator<char> > const, std::__cxx11::basic_string<char, std::char_traits<char>, std::allocator<char> > > >, std::pair<std::__cxx11::basic_string<char, std::char_traits<char>, std::allocator<char> >, std::__cxx11::basic_string<char, std::char_traits<char>, std::allocator<char> > >&&, std::_Rb_tree<std::__cxx11::basic_string<char, std::char_traits<char>, std::allocator<char> >, std::pair<std::__cxx11::basic_string<char, std::char_traits<char>, std::allocator<char> > const, std::__cxx11::basic_string<char, std::char_traits<char>, std::allocator<char> > >, std::_Select1st<std::pair<std::__cxx11::basic_string<char, std::char_traits<char>, std::allocator<char> > const, std::__cxx11::basic_string<char, std::char_traits<char>, std::allocator<char> > > >, std::less<std::__cxx11::basic_string<char, std::char_traits<char>, std::allocator<char> > >, std::allocator<std::pair<std::__cxx11::basic_string<char, std::char_traits<char>, std::allocator<char> > const, std::__cxx11::basic_string<char, std::char_traits<char>, std::allocator<char> > > > >::_Alloc_node&)+0xca>
  102b12:	f04f 0801 	mov.w	r8, #1
  102b16:	2040      	movs	r0, #64	; 0x40
  102b18:	f00a fe02 	bl	10d720 <operator new(unsigned int)>
  102b1c:	4604      	mov	r4, r0
  102b1e:	3010      	adds	r0, #16
  102b20:	d008      	beq.n	102b34 <std::_Rb_tree_iterator<std::pair<std::__cxx11::basic_string<char, std::char_traits<char>, std::allocator<char> > const, std::__cxx11::basic_string<char, std::char_traits<char>, std::allocator<char> > > > std::_Rb_tree<std::__cxx11::basic_string<char, std::char_traits<char>, std::allocator<char> >, std::pair<std::__cxx11::basic_string<char, std::char_traits<char>, std::allocator<char> > const, std::__cxx11::basic_string<char, std::char_traits<char>, std::allocator<char> > >, std::_Select1st<std::pair<std::__cxx11::basic_string<char, std::char_traits<char>, std::allocator<char> > const, std::__cxx11::basic_string<char, std::char_traits<char>, std::allocator<char> > > >, std::less<std::__cxx11::basic_string<char, std::char_traits<char>, std::allocator<char> > >, std::allocator<std::pair<std::__cxx11::basic_string<char, std::char_traits<char>, std::allocator<char> > const, std::__cxx11::basic_string<char, std::char_traits<char>, std::allocator<char> > > > >::_M_insert_unique_<std::pair<std::__cxx11::basic_string<char, std::char_traits<char>, std::allocator<char> >, std::__cxx11::basic_string<char, std::char_traits<char>, std::allocator<char> > >, std::_Rb_tree<std::__cxx11::basic_string<char, std::char_traits<char>, std::allocator<char> >, std::pair<std::__cxx11::basic_string<char, std::char_traits<char>, std::allocator<char> > const, std::__cxx11::basic_string<char, std::char_traits<char>, std::allocator<char> > >, std::_Select1st<std::pair<std::__cxx11::basic_string<char, std::char_traits<char>, std::allocator<char> > const, std::__cxx11::basic_string<char, std::char_traits<char>, std::allocator<char> > > >, std::less<std::__cxx11::basic_string<char, std::char_traits<char>, std::allocator<char> > >, std::allocator<std::pair<std::__cxx11::basic_string<char, std::char_traits<char>, std::allocator<char> > const, std::__cxx11::basic_string<char, std::char_traits<char>, std::allocator<char> > > > >::_Alloc_node>(std::_Rb_tree_const_iterator<std::pair<std::__cxx11::basic_string<char, std::char_traits<char>, std::allocator<char> > const, std::__cxx11::basic_string<char, std::char_traits<char>, std::allocator<char> > > >, std::pair<std::__cxx11::basic_string<char, std::char_traits<char>, std::allocator<char> >, std::__cxx11::basic_string<char, std::char_traits<char>, std::allocator<char> > >&&, std::_Rb_tree<std::__cxx11::basic_string<char, std::char_traits<char>, std::allocator<char> >, std::pair<std::__cxx11::basic_string<char, std::char_traits<char>, std::allocator<char> > const, std::__cxx11::basic_string<char, std::char_traits<char>, std::allocator<char> > >, std::_Select1st<std::pair<std::__cxx11::basic_string<char, std::char_traits<char>, std::allocator<char> > const, std::__cxx11::basic_string<char, std::char_traits<char>, std::allocator<char> > > >, std::less<std::__cxx11::basic_string<char, std::char_traits<char>, std::allocator<char> > >, std::allocator<std::pair<std::__cxx11::basic_string<char, std::char_traits<char>, std::allocator<char> > const, std::__cxx11::basic_string<char, std::char_traits<char>, std::allocator<char> > > > >::_Alloc_node&)+0xe8>
  102b22:	4631      	mov	r1, r6
  102b24:	f00b fb44 	bl	10e1b0 <std::__cxx11::basic_string<char, std::char_traits<char>, std::allocator<char> >::basic_string(std::__cxx11::basic_string<char, std::char_traits<char>, std::allocator<char> >&&)>
  102b28:	f106 0118 	add.w	r1, r6, #24
  102b2c:	f104 0028 	add.w	r0, r4, #40	; 0x28
  102b30:	f00b fb3e 	bl	10e1b0 <std::__cxx11::basic_string<char, std::char_traits<char>, std::allocator<char> >::basic_string(std::__cxx11::basic_string<char, std::char_traits<char>, std::allocator<char> >&&)>
  102b34:	464b      	mov	r3, r9
  102b36:	462a      	mov	r2, r5
  102b38:	4621      	mov	r1, r4
  102b3a:	4640      	mov	r0, r8
  102b3c:	f00b fa2a 	bl	10df94 <std::_Rb_tree_insert_and_rebalance(bool, std::_Rb_tree_node_base*, std::_Rb_tree_node_base*, std::_Rb_tree_node_base&)>
  102b40:	697b      	ldr	r3, [r7, #20]
  102b42:	3301      	adds	r3, #1
  102b44:	617b      	str	r3, [r7, #20]
  102b46:	4620      	mov	r0, r4
  102b48:	b003      	add	sp, #12
  102b4a:	e8bd 83f0 	ldmia.w	sp!, {r4, r5, r6, r7, r8, r9, pc}
  102b4e:	4632      	mov	r2, r6
  102b50:	4639      	mov	r1, r7
  102b52:	4668      	mov	r0, sp
  102b54:	f7ff ff4a 	bl	1029ec <std::_Rb_tree<std::__cxx11::basic_string<char, std::char_traits<char>, std::allocator<char> >, std::pair<std::__cxx11::basic_string<char, std::char_traits<char>, std::allocator<char> > const, std::__cxx11::basic_string<char, std::char_traits<char>, std::allocator<char> > >, std::_Select1st<std::pair<std::__cxx11::basic_string<char, std::char_traits<char>, std::allocator<char> > const, std::__cxx11::basic_string<char, std::char_traits<char>, std::allocator<char> > > >, std::less<std::__cxx11::basic_string<char, std::char_traits<char>, std::allocator<char> > >, std::allocator<std::pair<std::__cxx11::basic_string<char, std::char_traits<char>, std::allocator<char> > const, std::__cxx11::basic_string<char, std::char_traits<char>, std::allocator<char> > > > >::_M_get_insert_unique_pos(std::__cxx11::basic_string<char, std::char_traits<char>, std::allocator<char> > const&)>
  102b58:	e89d 0030 	ldmia.w	sp, {r4, r5}
  102b5c:	e7ce      	b.n	102afc <std::_Rb_tree_iterator<std::pair<std::__cxx11::basic_string<char, std::char_traits<char>, std::allocator<char> > const, std::__cxx11::basic_string<char, std::char_traits<char>, std::allocator<char> > > > std::_Rb_tree<std::__cxx11::basic_string<char, std::char_traits<char>, std::allocator<char> >, std::pair<std::__cxx11::basic_string<char, std::char_traits<char>, std::allocator<char> > const, std::__cxx11::basic_string<char, std::char_traits<char>, std::allocator<char> > >, std::_Select1st<std::pair<std::__cxx11::basic_string<char, std::char_traits<char>, std::allocator<char> > const, std::__cxx11::basic_string<char, std::char_traits<char>, std::allocator<char> > > >, std::less<std::__cxx11::basic_string<char, std::char_traits<char>, std::allocator<char> > >, std::allocator<std::pair<std::__cxx11::basic_string<char, std::char_traits<char>, std::allocator<char> > const, std::__cxx11::basic_string<char, std::char_traits<char>, std::allocator<char> > > > >::_M_insert_unique_<std::pair<std::__cxx11::basic_string<char, std::char_traits<char>, std::allocator<char> >, std::__cxx11::basic_string<char, std::char_traits<char>, std::allocator<char> > >, std::_Rb_tree<std::__cxx11::basic_string<char, std::char_traits<char>, std::allocator<char> >, std::pair<std::__cxx11::basic_string<char, std::char_traits<char>, std::allocator<char> > const, std::__cxx11::basic_string<char, std::char_traits<char>, std::allocator<char> > >, std::_Select1st<std::pair<std::__cxx11::basic_string<char, std::char_traits<char>, std::allocator<char> > const, std::__cxx11::basic_string<char, std::char_traits<char>, std::allocator<char> > > >, std::less<std::__cxx11::basic_string<char, std::char_traits<char>, std::allocator<char> > >, std::allocator<std::pair<std::__cxx11::basic_string<char, std::char_traits<char>, std::allocator<char> > const, std::__cxx11::basic_string<char, std::char_traits<char>, std::allocator<char> > > > >::_Alloc_node>(std::_Rb_tree_const_iterator<std::pair<std::__cxx11::basic_string<char, std::char_traits<char>, std::allocator<char> > const, std::__cxx11::basic_string<char, std::char_traits<char>, std::allocator<char> > > >, std::pair<std::__cxx11::basic_string<char, std::char_traits<char>, std::allocator<char> >, std::__cxx11::basic_string<char, std::char_traits<char>, std::allocator<char> > >&&, std::_Rb_tree<std::__cxx11::basic_string<char, std::char_traits<char>, std::allocator<char> >, std::pair<std::__cxx11::basic_string<char, std::char_traits<char>, std::allocator<char> > const, std::__cxx11::basic_string<char, std::char_traits<char>, std::allocator<char> > >, std::_Select1st<std::pair<std::__cxx11::basic_string<char, std::char_traits<char>, std::allocator<char> > const, std::__cxx11::basic_string<char, std::char_traits<char>, std::allocator<char> > > >, std::less<std::__cxx11::basic_string<char, std::char_traits<char>, std::allocator<char> > >, std::allocator<std::pair<std::__cxx11::basic_string<char, std::char_traits<char>, std::allocator<char> > const, std::__cxx11::basic_string<char, std::char_traits<char>, std::allocator<char> > > > >::_Alloc_node&)+0xb0>
  102b5e:	2d00      	cmp	r5, #0
  102b60:	d1ce      	bne.n	102b00 <std::_Rb_tree_iterator<std::pair<std::__cxx11::basic_string<char, std::char_traits<char>, std::allocator<char> > const, std::__cxx11::basic_string<char, std::char_traits<char>, std::allocator<char> > > > std::_Rb_tree<std::__cxx11::basic_string<char, std::char_traits<char>, std::allocator<char> >, std::pair<std::__cxx11::basic_string<char, std::char_traits<char>, std::allocator<char> > const, std::__cxx11::basic_string<char, std::char_traits<char>, std::allocator<char> > >, std::_Select1st<std::pair<std::__cxx11::basic_string<char, std::char_traits<char>, std::allocator<char> > const, std::__cxx11::basic_string<char, std::char_traits<char>, std::allocator<char> > > >, std::less<std::__cxx11::basic_string<char, std::char_traits<char>, std::allocator<char> > >, std::allocator<std::pair<std::__cxx11::basic_string<char, std::char_traits<char>, std::allocator<char> > const, std::__cxx11::basic_string<char, std::char_traits<char>, std::allocator<char> > > > >::_M_insert_unique_<std::pair<std::__cxx11::basic_string<char, std::char_traits<char>, std::allocator<char> >, std::__cxx11::basic_string<char, std::char_traits<char>, std::allocator<char> > >, std::_Rb_tree<std::__cxx11::basic_string<char, std::char_traits<char>, std::allocator<char> >, std::pair<std::__cxx11::basic_string<char, std::char_traits<char>, std::allocator<char> > const, std::__cxx11::basic_string<char, std::char_traits<char>, std::allocator<char> > >, std::_Select1st<std::pair<std::__cxx11::basic_string<char, std::char_traits<char>, std::allocator<char> > const, std::__cxx11::basic_string<char, std::char_traits<char>, std::allocator<char> > > >, std::less<std::__cxx11::basic_string<char, std::char_traits<char>, std::allocator<char> > >, std::allocator<std::pair<std::__cxx11::basic_string<char, std::char_traits<char>, std::allocator<char> > const, std::__cxx11::basic_string<char, std::char_traits<char>, std::allocator<char> > > > >::_Alloc_node>(std::_Rb_tree_const_iterator<std::pair<std::__cxx11::basic_string<char, std::char_traits<char>, std::allocator<char> > const, std::__cxx11::basic_string<char, std::char_traits<char>, std::allocator<char> > > >, std::pair<std::__cxx11::basic_string<char, std::char_traits<char>, std::allocator<char> >, std::__cxx11::basic_string<char, std::char_traits<char>, std::allocator<char> > >&&, std::_Rb_tree<std::__cxx11::basic_string<char, std::char_traits<char>, std::allocator<char> >, std::pair<std::__cxx11::basic_string<char, std::char_traits<char>, std::allocator<char> > const, std::__cxx11::basic_string<char, std::char_traits<char>, std::allocator<char> > >, std::_Select1st<std::pair<std::__cxx11::basic_string<char, std::char_traits<char>, std::allocator<char> > const, std::__cxx11::basic_string<char, std::char_traits<char>, std::allocator<char> > > >, std::less<std::__cxx11::basic_string<char, std::char_traits<char>, std::allocator<char> > >, std::allocator<std::pair<std::__cxx11::basic_string<char, std::char_traits<char>, std::allocator<char> > const, std::__cxx11::basic_string<char, std::char_traits<char>, std::allocator<char> > > > >::_Alloc_node&)+0xb4>
  102b62:	462c      	mov	r4, r5
  102b64:	e7ef      	b.n	102b46 <std::_Rb_tree_iterator<std::pair<std::__cxx11::basic_string<char, std::char_traits<char>, std::allocator<char> > const, std::__cxx11::basic_string<char, std::char_traits<char>, std::allocator<char> > > > std::_Rb_tree<std::__cxx11::basic_string<char, std::char_traits<char>, std::allocator<char> >, std::pair<std::__cxx11::basic_string<char, std::char_traits<char>, std::allocator<char> > const, std::__cxx11::basic_string<char, std::char_traits<char>, std::allocator<char> > >, std::_Select1st<std::pair<std::__cxx11::basic_string<char, std::char_traits<char>, std::allocator<char> > const, std::__cxx11::basic_string<char, std::char_traits<char>, std::allocator<char> > > >, std::less<std::__cxx11::basic_string<char, std::char_traits<char>, std::allocator<char> > >, std::allocator<std::pair<std::__cxx11::basic_string<char, std::char_traits<char>, std::allocator<char> > const, std::__cxx11::basic_string<char, std::char_traits<char>, std::allocator<char> > > > >::_M_insert_unique_<std::pair<std::__cxx11::basic_string<char, std::char_traits<char>, std::allocator<char> >, std::__cxx11::basic_string<char, std::char_traits<char>, std::allocator<char> > >, std::_Rb_tree<std::__cxx11::basic_string<char, std::char_traits<char>, std::allocator<char> >, std::pair<std::__cxx11::basic_string<char, std::char_traits<char>, std::allocator<char> > const, std::__cxx11::basic_string<char, std::char_traits<char>, std::allocator<char> > >, std::_Select1st<std::pair<std::__cxx11::basic_string<char, std::char_traits<char>, std::allocator<char> > const, std::__cxx11::basic_string<char, std::char_traits<char>, std::allocator<char> > > >, std::less<std::__cxx11::basic_string<char, std::char_traits<char>, std::allocator<char> > >, std::allocator<std::pair<std::__cxx11::basic_string<char, std::char_traits<char>, std::allocator<char> > const, std::__cxx11::basic_string<char, std::char_traits<char>, std::allocator<char> > > > >::_Alloc_node>(std::_Rb_tree_const_iterator<std::pair<std::__cxx11::basic_string<char, std::char_traits<char>, std::allocator<char> > const, std::__cxx11::basic_string<char, std::char_traits<char>, std::allocator<char> > > >, std::pair<std::__cxx11::basic_string<char, std::char_traits<char>, std::allocator<char> >, std::__cxx11::basic_string<char, std::char_traits<char>, std::allocator<char> > >&&, std::_Rb_tree<std::__cxx11::basic_string<char, std::char_traits<char>, std::allocator<char> >, std::pair<std::__cxx11::basic_string<char, std::char_traits<char>, std::allocator<char> > const, std::__cxx11::basic_string<char, std::char_traits<char>, std::allocator<char> > >, std::_Select1st<std::pair<std::__cxx11::basic_string<char, std::char_traits<char>, std::allocator<char> > const, std::__cxx11::basic_string<char, std::char_traits<char>, std::allocator<char> > > >, std::less<std::__cxx11::basic_string<char, std::char_traits<char>, std::allocator<char> > >, std::allocator<std::pair<std::__cxx11::basic_string<char, std::char_traits<char>, std::allocator<char> > const, std::__cxx11::basic_string<char, std::char_traits<char>, std::allocator<char> > > > >::_Alloc_node&)+0xfa>

00102b66 <HttpRequestBuilder::set_header(std::__cxx11::basic_string<char, std::char_traits<char>, std::allocator<char> >, std::__cxx11::basic_string<char, std::char_traits<char>, std::allocator<char> >)>:
  102b66:	e92d 43f0 	stmdb	sp!, {r4, r5, r6, r7, r8, r9, lr}
  102b6a:	f100 070c 	add.w	r7, r0, #12
  102b6e:	4605      	mov	r5, r0
  102b70:	4688      	mov	r8, r1
  102b72:	4691      	mov	r9, r2
  102b74:	463e      	mov	r6, r7
  102b76:	6904      	ldr	r4, [r0, #16]
  102b78:	b08f      	sub	sp, #60	; 0x3c
  102b7a:	b164      	cbz	r4, 102b96 <HttpRequestBuilder::set_header(std::__cxx11::basic_string<char, std::char_traits<char>, std::allocator<char> >, std::__cxx11::basic_string<char, std::char_traits<char>, std::allocator<char> >)+0x30>
  102b7c:	4641      	mov	r1, r8
  102b7e:	f104 0010 	add.w	r0, r4, #16
  102b82:	f7ff ff2e 	bl	1029e2 <bool std::operator< <char, std::char_traits<char>, std::allocator<char> >(std::__cxx11::basic_string<char, std::char_traits<char>, std::allocator<char> > const&, std::__cxx11::basic_string<char, std::char_traits<char>, std::allocator<char> > const&)>
  102b86:	b918      	cbnz	r0, 102b90 <HttpRequestBuilder::set_header(std::__cxx11::basic_string<char, std::char_traits<char>, std::allocator<char> >, std::__cxx11::basic_string<char, std::char_traits<char>, std::allocator<char> >)+0x2a>
  102b88:	68a3      	ldr	r3, [r4, #8]
  102b8a:	4626      	mov	r6, r4
  102b8c:	461c      	mov	r4, r3
  102b8e:	e7f4      	b.n	102b7a <HttpRequestBuilder::set_header(std::__cxx11::basic_string<char, std::char_traits<char>, std::allocator<char> >, std::__cxx11::basic_string<char, std::char_traits<char>, std::allocator<char> >)+0x14>
  102b90:	68e3      	ldr	r3, [r4, #12]
  102b92:	4634      	mov	r4, r6
  102b94:	e7f9      	b.n	102b8a <HttpRequestBuilder::set_header(std::__cxx11::basic_string<char, std::char_traits<char>, std::allocator<char> >, std::__cxx11::basic_string<char, std::char_traits<char>, std::allocator<char> >)+0x24>
  102b96:	42b7      	cmp	r7, r6
  102b98:	d00b      	beq.n	102bb2 <HttpRequestBuilder::set_header(std::__cxx11::basic_string<char, std::char_traits<char>, std::allocator<char> >, std::__cxx11::basic_string<char, std::char_traits<char>, std::allocator<char> >)+0x4c>
  102b9a:	f106 0110 	add.w	r1, r6, #16
  102b9e:	4640      	mov	r0, r8
  102ba0:	f7ff ff1f 	bl	1029e2 <bool std::operator< <char, std::char_traits<char>, std::allocator<char> >(std::__cxx11::basic_string<char, std::char_traits<char>, std::allocator<char> > const&, std::__cxx11::basic_string<char, std::char_traits<char>, std::allocator<char> > const&)>
  102ba4:	b928      	cbnz	r0, 102bb2 <HttpRequestBuilder::set_header(std::__cxx11::basic_string<char, std::char_traits<char>, std::allocator<char> >, std::__cxx11::basic_string<char, std::char_traits<char>, std::allocator<char> >)+0x4c>
  102ba6:	4649      	mov	r1, r9
  102ba8:	f106 0028 	add.w	r0, r6, #40	; 0x28
  102bac:	f00b fa9b 	bl	10e0e6 <std::__cxx11::basic_string<char, std::char_traits<char>, std::allocator<char> >::_M_assign(std::__cxx11::basic_string<char, std::char_traits<char>, std::allocator<char> > const&)>
  102bb0:	e016      	b.n	102be0 <HttpRequestBuilder::set_header(std::__cxx11::basic_string<char, std::char_traits<char>, std::allocator<char> >, std::__cxx11::basic_string<char, std::char_traits<char>, std::allocator<char> >)+0x7a>
  102bb2:	4641      	mov	r1, r8
  102bb4:	a802      	add	r0, sp, #8
  102bb6:	f00b fbe1 	bl	10e37c <std::__cxx11::basic_string<char, std::char_traits<char>, std::allocator<char> >::basic_string(std::__cxx11::basic_string<char, std::char_traits<char>, std::allocator<char> > const&)>
  102bba:	4649      	mov	r1, r9
  102bbc:	a808      	add	r0, sp, #32
  102bbe:	f00b fbdd 	bl	10e37c <std::__cxx11::basic_string<char, std::char_traits<char>, std::allocator<char> >::basic_string(std::__cxx11::basic_string<char, std::char_traits<char>, std::allocator<char> > const&)>
  102bc2:	3508      	adds	r5, #8
  102bc4:	ab0e      	add	r3, sp, #56	; 0x38
  102bc6:	f843 5d34 	str.w	r5, [r3, #-52]!
  102bca:	aa02      	add	r2, sp, #8
  102bcc:	4639      	mov	r1, r7
  102bce:	4628      	mov	r0, r5
  102bd0:	f7ff ff3c 	bl	102a4c <std::_Rb_tree_iterator<std::pair<std::__cxx11::basic_string<char, std::char_traits<char>, std::allocator<char> > const, std::__cxx11::basic_string<char, std::char_traits<char>, std::allocator<char> > > > std::_Rb_tree<std::__cxx11::basic_string<char, std::char_traits<char>, std::allocator<char> >, std::pair<std::__cxx11::basic_string<char, std::char_traits<char>, std::allocator<char> > const, std::__cxx11::basic_string<char, std::char_traits<char>, std::allocator<char> > >, std::_Select1st<std::pair<std::__cxx11::basic_string<char, std::char_traits<char>, std::allocator<char> > const, std::__cxx11::basic_string<char, std::char_traits<char>, std::allocator<char> > > >, std::less<std::__cxx11::basic_string<char, std::char_traits<char>, std::allocator<char> > >, std::allocator<std::pair<std::__cxx11::basic_string<char, std::char_traits<char>, std::allocator<char> > const, std::__cxx11::basic_string<char, std::char_traits<char>, std::allocator<char> > > > >::_M_insert_unique_<std::pair<std::__cxx11::basic_string<char, std::char_traits<char>, std::allocator<char> >, std::__cxx11::basic_string<char, std::char_traits<char>, std::allocator<char> > >, std::_Rb_tree<std::__cxx11::basic_string<char, std::char_traits<char>, std::allocator<char> >, std::pair<std::__cxx11::basic_string<char, std::char_traits<char>, std::allocator<char> > const, std::__cxx11::basic_string<char, std::char_traits<char>, std::allocator<char> > >, std::_Select1st<std::pair<std::__cxx11::basic_string<char, std::char_traits<char>, std::allocator<char> > const, std::__cxx11::basic_string<char, std::char_traits<char>, std::allocator<char> > > >, std::less<std::__cxx11::basic_string<char, std::char_traits<char>, std::allocator<char> > >, std::allocator<std::pair<std::__cxx11::basic_string<char, std::char_traits<char>, std::allocator<char> > const, std::__cxx11::basic_string<char, std::char_traits<char>, std::allocator<char> > > > >::_Alloc_node>(std::_Rb_tree_const_iterator<std::pair<std::__cxx11::basic_string<char, std::char_traits<char>, std::allocator<char> > const, std::__cxx11::basic_string<char, std::char_traits<char>, std::allocator<char> > > >, std::pair<std::__cxx11::basic_string<char, std::char_traits<char>, std::allocator<char> >, std::__cxx11::basic_string<char, std::char_traits<char>, std::allocator<char> > >&&, std::_Rb_tree<std::__cxx11::basic_string<char, std::char_traits<char>, std::allocator<char> >, std::pair<std::__cxx11::basic_string<char, std::char_traits<char>, std::allocator<char> > const, std::__cxx11::basic_string<char, std::char_traits<char>, std::allocator<char> > >, std::_Select1st<std::pair<std::__cxx11::basic_string<char, std::char_traits<char>, std::allocator<char> > const, std::__cxx11::basic_string<char, std::char_traits<char>, std::allocator<char> > > >, std::less<std::__cxx11::basic_string<char, std::char_traits<char>, std::allocator<char> > >, std::allocator<std::pair<std::__cxx11::basic_string<char, std::char_traits<char>, std::allocator<char> > const, std::__cxx11::basic_string<char, std::char_traits<char>, std::allocator<char> > > > >::_Alloc_node&)>
  102bd4:	a808      	add	r0, sp, #32
  102bd6:	f00b fa6b 	bl	10e0b0 <std::__cxx11::basic_string<char, std::char_traits<char>, std::allocator<char> >::_M_dispose()>
  102bda:	a802      	add	r0, sp, #8
  102bdc:	f00b fa68 	bl	10e0b0 <std::__cxx11::basic_string<char, std::char_traits<char>, std::allocator<char> >::_M_dispose()>
  102be0:	b00f      	add	sp, #60	; 0x3c
  102be2:	e8bd 83f0 	ldmia.w	sp!, {r4, r5, r6, r7, r8, r9, pc}
	...

00102be8 <HttpRequest::HttpRequest(NetworkInterface*, http_method, char const*, mbed::Callback<void (char const*, unsigned int)>, unsigned int)>:
  102be8:	b5f0      	push	{r4, r5, r6, r7, lr}
  102bea:	4604      	mov	r4, r0
  102bec:	b08d      	sub	sp, #52	; 0x34
  102bee:	7202      	strb	r2, [r0, #8]
  102bf0:	6001      	str	r1, [r0, #0]
  102bf2:	9912      	ldr	r1, [sp, #72]	; 0x48
  102bf4:	300c      	adds	r0, #12
  102bf6:	461f      	mov	r7, r3
  102bf8:	f7ff fd63 	bl	1026c2 <mbed::Callback<void (char const*, unsigned int)>::Callback(mbed::Callback<void (char const*, unsigned int)> const&)>
  102bfc:	9b13      	ldr	r3, [sp, #76]	; 0x4c
  102bfe:	2600      	movs	r6, #0
  102c00:	61e3      	str	r3, [r4, #28]
  102c02:	6326      	str	r6, [r4, #48]	; 0x30
  102c04:	62a6      	str	r6, [r4, #40]	; 0x28
  102c06:	2018      	movs	r0, #24
  102c08:	f00a fd8a 	bl	10d720 <operator new(unsigned int)>
  102c0c:	4605      	mov	r5, r0
  102c0e:	4639      	mov	r1, r7
  102c10:	f7ff fc8c 	bl	10252c <ParsedUrl::ParsedUrl(char const*)>
  102c14:	6225      	str	r5, [r4, #32]
  102c16:	2020      	movs	r0, #32
  102c18:	f00a fd82 	bl	10d720 <operator new(unsigned int)>
  102c1c:	4605      	mov	r5, r0
  102c1e:	6a23      	ldr	r3, [r4, #32]
  102c20:	7a22      	ldrb	r2, [r4, #8]
  102c22:	f100 070c 	add.w	r7, r0, #12
  102c26:	6043      	str	r3, [r0, #4]
  102c28:	7002      	strb	r2, [r0, #0]
  102c2a:	4631      	mov	r1, r6
  102c2c:	2210      	movs	r2, #16
  102c2e:	4638      	mov	r0, r7
  102c30:	f00d f979 	bl	10ff26 <memset>
  102c34:	61ee      	str	r6, [r5, #28]
  102c36:	616f      	str	r7, [r5, #20]
  102c38:	61af      	str	r7, [r5, #24]
  102c3a:	4911      	ldr	r1, [pc, #68]	; (102c80 <HttpRequest::HttpRequest(NetworkInterface*, http_method, char const*, mbed::Callback<void (char const*, unsigned int)>, unsigned int)+0x98>)
  102c3c:	a806      	add	r0, sp, #24
  102c3e:	f7ff fba3 	bl	102388 <std::__cxx11::basic_string<char, std::char_traits<char>, std::allocator<char> >::basic_string(char const*, std::allocator<char> const&) [clone .isra.54]>
  102c42:	686b      	ldr	r3, [r5, #4]
  102c44:	4668      	mov	r0, sp
  102c46:	6899      	ldr	r1, [r3, #8]
  102c48:	f7ff fb9e 	bl	102388 <std::__cxx11::basic_string<char, std::char_traits<char>, std::allocator<char> >::basic_string(char const*, std::allocator<char> const&) [clone .isra.54]>
  102c4c:	466a      	mov	r2, sp
  102c4e:	a906      	add	r1, sp, #24
  102c50:	4628      	mov	r0, r5
  102c52:	f7ff ff88 	bl	102b66 <HttpRequestBuilder::set_header(std::__cxx11::basic_string<char, std::char_traits<char>, std::allocator<char> >, std::__cxx11::basic_string<char, std::char_traits<char>, std::allocator<char> >)>
  102c56:	4668      	mov	r0, sp
  102c58:	f00b fa2a 	bl	10e0b0 <std::__cxx11::basic_string<char, std::char_traits<char>, std::allocator<char> >::_M_dispose()>
  102c5c:	a806      	add	r0, sp, #24
  102c5e:	f00b fa27 	bl	10e0b0 <std::__cxx11::basic_string<char, std::char_traits<char>, std::allocator<char> >::_M_dispose()>
  102c62:	6265      	str	r5, [r4, #36]	; 0x24
  102c64:	20b0      	movs	r0, #176	; 0xb0
  102c66:	f00a fd5b 	bl	10d720 <operator new(unsigned int)>
  102c6a:	4605      	mov	r5, r0
  102c6c:	f00a f9d6 	bl	10d01c <TCPSocket::TCPSocket()>
  102c70:	4620      	mov	r0, r4
  102c72:	2301      	movs	r3, #1
  102c74:	6065      	str	r5, [r4, #4]
  102c76:	f884 302c 	strb.w	r3, [r4, #44]	; 0x2c
  102c7a:	b00d      	add	sp, #52	; 0x34
  102c7c:	bdf0      	pop	{r4, r5, r6, r7, pc}
  102c7e:	bf00      	nop
  102c80:	001160bc 	.word	0x001160bc

00102c84 <HttpRequestBuilder::build(void const*, unsigned int, unsigned int&)>:
  102c84:	e92d 4ff0 	stmdb	sp!, {r4, r5, r6, r7, r8, r9, r10, r11, lr}
  102c88:	4605      	mov	r5, r0
  102c8a:	b095      	sub	sp, #84	; 0x54
  102c8c:	7800      	ldrb	r0, [r0, #0]
  102c8e:	4616      	mov	r6, r2
  102c90:	461f      	mov	r7, r3
  102c92:	4688      	mov	r8, r1
  102c94:	f004 fd76 	bl	107784 <http_method_str>
  102c98:	782b      	ldrb	r3, [r5, #0]
  102c9a:	4604      	mov	r4, r0
  102c9c:	1eda      	subs	r2, r3, #3
  102c9e:	2a01      	cmp	r2, #1
  102ca0:	d901      	bls.n	102ca6 <HttpRequestBuilder::build(void const*, unsigned int, unsigned int&)+0x22>
  102ca2:	b103      	cbz	r3, 102ca6 <HttpRequestBuilder::build(void const*, unsigned int, unsigned int&)+0x22>
  102ca4:	b1c6      	cbz	r6, 102cd8 <HttpRequestBuilder::build(void const*, unsigned int, unsigned int&)+0x54>
  102ca6:	4633      	mov	r3, r6
  102ca8:	4a4c      	ldr	r2, [pc, #304]	; (102ddc <HttpRequestBuilder::build(void const*, unsigned int, unsigned int&)+0x158>)
  102caa:	210a      	movs	r1, #10
  102cac:	a805      	add	r0, sp, #20
  102cae:	f00e fca3 	bl	1115f8 <sniprintf>
  102cb2:	494b      	ldr	r1, [pc, #300]	; (102de0 <HttpRequestBuilder::build(void const*, unsigned int, unsigned int&)+0x15c>)
  102cb4:	a80e      	add	r0, sp, #56	; 0x38
  102cb6:	f7ff fb67 	bl	102388 <std::__cxx11::basic_string<char, std::char_traits<char>, std::allocator<char> >::basic_string(char const*, std::allocator<char> const&) [clone .isra.54]>
  102cba:	a905      	add	r1, sp, #20
  102cbc:	a808      	add	r0, sp, #32
  102cbe:	f7ff fb63 	bl	102388 <std::__cxx11::basic_string<char, std::char_traits<char>, std::allocator<char> >::basic_string(char const*, std::allocator<char> const&) [clone .isra.54]>
  102cc2:	aa08      	add	r2, sp, #32
  102cc4:	a90e      	add	r1, sp, #56	; 0x38
  102cc6:	4628      	mov	r0, r5
  102cc8:	f7ff ff4d 	bl	102b66 <HttpRequestBuilder::set_header(std::__cxx11::basic_string<char, std::char_traits<char>, std::allocator<char> >, std::__cxx11::basic_string<char, std::char_traits<char>, std::allocator<char> >)>
  102ccc:	a808      	add	r0, sp, #32
  102cce:	f00b f9ef 	bl	10e0b0 <std::__cxx11::basic_string<char, std::char_traits<char>, std::allocator<char> >::_M_dispose()>
  102cd2:	a80e      	add	r0, sp, #56	; 0x38
  102cd4:	f00b f9ec 	bl	10e0b0 <std::__cxx11::basic_string<char, std::char_traits<char>, std::allocator<char> >::_M_dispose()>
  102cd8:	2300      	movs	r3, #0
  102cda:	603b      	str	r3, [r7, #0]
  102cdc:	4620      	mov	r0, r4
  102cde:	f00e fd62 	bl	1117a6 <strlen>
  102ce2:	f8d5 b004 	ldr.w	r11, [r5, #4]
  102ce6:	4681      	mov	r9, r0
  102ce8:	f8db a00c 	ldr.w	r10, [r11, #12]
  102cec:	4650      	mov	r0, r10
  102cee:	f00e fd5a 	bl	1117a6 <strlen>
  102cf2:	f8db b010 	ldr.w	r11, [r11, #16]
  102cf6:	4481      	add	r9, r0
  102cf8:	f89b 0000 	ldrb.w	r0, [r11]
  102cfc:	b118      	cbz	r0, 102d06 <HttpRequestBuilder::build(void const*, unsigned int, unsigned int&)+0x82>
  102cfe:	4658      	mov	r0, r11
  102d00:	f00e fd51 	bl	1117a6 <strlen>
  102d04:	3001      	adds	r0, #1
  102d06:	f109 090c 	add.w	r9, r9, #12
  102d0a:	4448      	add	r0, r9
  102d0c:	f8d5 9014 	ldr.w	r9, [r5, #20]
  102d10:	6038      	str	r0, [r7, #0]
  102d12:	f105 030c 	add.w	r3, r5, #12
  102d16:	4599      	cmp	r9, r3
  102d18:	9303      	str	r3, [sp, #12]
  102d1a:	6838      	ldr	r0, [r7, #0]
  102d1c:	d00d      	beq.n	102d3a <HttpRequestBuilder::build(void const*, unsigned int, unsigned int&)+0xb6>
  102d1e:	f8d9 2014 	ldr.w	r2, [r9, #20]
  102d22:	3004      	adds	r0, #4
  102d24:	4410      	add	r0, r2
  102d26:	f8d9 202c 	ldr.w	r2, [r9, #44]	; 0x2c
  102d2a:	4402      	add	r2, r0
  102d2c:	603a      	str	r2, [r7, #0]
  102d2e:	4648      	mov	r0, r9
  102d30:	f00b f91b 	bl	10df6a <std::_Rb_tree_increment(std::_Rb_tree_node_base*)>
  102d34:	9b03      	ldr	r3, [sp, #12]
  102d36:	4681      	mov	r9, r0
  102d38:	e7ed      	b.n	102d16 <HttpRequestBuilder::build(void const*, unsigned int, unsigned int&)+0x92>
  102d3a:	4430      	add	r0, r6
  102d3c:	1d03      	adds	r3, r0, #4
  102d3e:	603b      	str	r3, [r7, #0]
  102d40:	2101      	movs	r1, #1
  102d42:	3005      	adds	r0, #5
  102d44:	f00c fd48 	bl	10f7d8 <calloc>
  102d48:	f89b 3000 	ldrb.w	r3, [r11]
  102d4c:	4607      	mov	r7, r0
  102d4e:	f8cd b000 	str.w	r11, [sp]
  102d52:	b11b      	cbz	r3, 102d5c <HttpRequestBuilder::build(void const*, unsigned int, unsigned int&)+0xd8>
  102d54:	4653      	mov	r3, r10
  102d56:	4622      	mov	r2, r4
  102d58:	4922      	ldr	r1, [pc, #136]	; (102de4 <HttpRequestBuilder::build(void const*, unsigned int, unsigned int&)+0x160>)
  102d5a:	e002      	b.n	102d62 <HttpRequestBuilder::build(void const*, unsigned int, unsigned int&)+0xde>
  102d5c:	4653      	mov	r3, r10
  102d5e:	4622      	mov	r2, r4
  102d60:	4921      	ldr	r1, [pc, #132]	; (102de8 <HttpRequestBuilder::build(void const*, unsigned int, unsigned int&)+0x164>)
  102d62:	f00e fc7b 	bl	11165c <siprintf>
  102d66:	4620      	mov	r0, r4
  102d68:	f00e fd1d 	bl	1117a6 <strlen>
  102d6c:	686c      	ldr	r4, [r5, #4]
  102d6e:	4682      	mov	r10, r0
  102d70:	68e0      	ldr	r0, [r4, #12]
  102d72:	f00e fd18 	bl	1117a6 <strlen>
  102d76:	4482      	add	r10, r0
  102d78:	6920      	ldr	r0, [r4, #16]
  102d7a:	7804      	ldrb	r4, [r0, #0]
  102d7c:	b11c      	cbz	r4, 102d86 <HttpRequestBuilder::build(void const*, unsigned int, unsigned int&)+0x102>
  102d7e:	f00e fd12 	bl	1117a6 <strlen>
  102d82:	3001      	adds	r0, #1
  102d84:	e000      	b.n	102d88 <HttpRequestBuilder::build(void const*, unsigned int, unsigned int&)+0x104>
  102d86:	4620      	mov	r0, r4
  102d88:	f10a 040c 	add.w	r4, r10, #12
  102d8c:	4420      	add	r0, r4
  102d8e:	696d      	ldr	r5, [r5, #20]
  102d90:	183c      	adds	r4, r7, r0
  102d92:	45a9      	cmp	r9, r5
  102d94:	d00f      	beq.n	102db6 <HttpRequestBuilder::build(void const*, unsigned int, unsigned int&)+0x132>
  102d96:	6aab      	ldr	r3, [r5, #40]	; 0x28
  102d98:	692a      	ldr	r2, [r5, #16]
  102d9a:	4914      	ldr	r1, [pc, #80]	; (102dec <HttpRequestBuilder::build(void const*, unsigned int, unsigned int&)+0x168>)
  102d9c:	4620      	mov	r0, r4
  102d9e:	f00e fc5d 	bl	11165c <siprintf>
  102da2:	696a      	ldr	r2, [r5, #20]
  102da4:	6aeb      	ldr	r3, [r5, #44]	; 0x2c
  102da6:	4628      	mov	r0, r5
  102da8:	4413      	add	r3, r2
  102daa:	3304      	adds	r3, #4
  102dac:	441c      	add	r4, r3
  102dae:	f00b f8dc 	bl	10df6a <std::_Rb_tree_increment(std::_Rb_tree_node_base*)>
  102db2:	4605      	mov	r5, r0
  102db4:	e7ed      	b.n	102d92 <HttpRequestBuilder::build(void const*, unsigned int, unsigned int&)+0x10e>
  102db6:	4620      	mov	r0, r4
  102db8:	490d      	ldr	r1, [pc, #52]	; (102df0 <HttpRequestBuilder::build(void const*, unsigned int, unsigned int&)+0x16c>)
  102dba:	f00e fcec 	bl	111796 <strcpy>
  102dbe:	3402      	adds	r4, #2
  102dc0:	b126      	cbz	r6, 102dcc <HttpRequestBuilder::build(void const*, unsigned int, unsigned int&)+0x148>
  102dc2:	4632      	mov	r2, r6
  102dc4:	4641      	mov	r1, r8
  102dc6:	4620      	mov	r0, r4
  102dc8:	f00d f887 	bl	10feda <memcpy>
  102dcc:	4908      	ldr	r1, [pc, #32]	; (102df0 <HttpRequestBuilder::build(void const*, unsigned int, unsigned int&)+0x16c>)
  102dce:	19a0      	adds	r0, r4, r6
  102dd0:	f00e fce1 	bl	111796 <strcpy>
  102dd4:	4638      	mov	r0, r7
  102dd6:	b015      	add	sp, #84	; 0x54
  102dd8:	e8bd 8ff0 	ldmia.w	sp!, {r4, r5, r6, r7, r8, r9, r10, r11, pc}
  102ddc:	0011a2d0 	.word	0x0011a2d0
  102de0:	001160c1 	.word	0x001160c1
  102de4:	001160d0 	.word	0x001160d0
  102de8:	001160e4 	.word	0x001160e4
  102dec:	001160f7 	.word	0x001160f7
  102df0:	001164eb 	.word	0x001164eb

00102df4 <HttpRequest::send(void const*, unsigned int)>:
  102df4:	e92d 47f0 	stmdb	sp!, {r4, r5, r6, r7, r8, r9, r10, lr}
  102df8:	6a87      	ldr	r7, [r0, #40]	; 0x28
  102dfa:	b08e      	sub	sp, #56	; 0x38
  102dfc:	4604      	mov	r4, r0
  102dfe:	460d      	mov	r5, r1
  102e00:	4690      	mov	r8, r2
  102e02:	b11f      	cbz	r7, 102e0c <HttpRequest::send(void const*, unsigned int)+0x18>
  102e04:	4b7b      	ldr	r3, [pc, #492]	; (102ff4 <HttpRequest::send(void const*, unsigned int)+0x200>)
  102e06:	2700      	movs	r7, #0
  102e08:	6303      	str	r3, [r0, #48]	; 0x30
  102e0a:	e0ee      	b.n	102fea <HttpRequest::send(void const*, unsigned int)+0x1f6>
  102e0c:	f890 302c 	ldrb.w	r3, [r0, #44]	; 0x2c
  102e10:	6307      	str	r7, [r0, #48]	; 0x30
  102e12:	b19b      	cbz	r3, 102e3c <HttpRequest::send(void const*, unsigned int)+0x48>
  102e14:	c841      	ldmia	r0, {r0, r6}
  102e16:	6803      	ldr	r3, [r0, #0]
  102e18:	6b1b      	ldr	r3, [r3, #48]	; 0x30
  102e1a:	4798      	blx	r3
  102e1c:	f009 fed4 	bl	10cbc8 <nsapi_create_stack(NetworkStack*)>
  102e20:	4601      	mov	r1, r0
  102e22:	4630      	mov	r0, r6
  102e24:	f009 ff54 	bl	10ccd0 <Socket::open(NetworkStack*)>
  102e28:	b930      	cbnz	r0, 102e38 <HttpRequest::send(void const*, unsigned int)+0x44>
  102e2a:	6a23      	ldr	r3, [r4, #32]
  102e2c:	6860      	ldr	r0, [r4, #4]
  102e2e:	881a      	ldrh	r2, [r3, #0]
  102e30:	6899      	ldr	r1, [r3, #8]
  102e32:	f00a f961 	bl	10d0f8 <TCPSocket::connect(char const*, unsigned short)>
  102e36:	b108      	cbz	r0, 102e3c <HttpRequest::send(void const*, unsigned int)+0x48>
  102e38:	6320      	str	r0, [r4, #48]	; 0x30
  102e3a:	e0d6      	b.n	102fea <HttpRequest::send(void const*, unsigned int)+0x1f6>
  102e3c:	ab0e      	add	r3, sp, #56	; 0x38
  102e3e:	2600      	movs	r6, #0
  102e40:	f843 6d34 	str.w	r6, [r3, #-52]!
  102e44:	4642      	mov	r2, r8
  102e46:	4629      	mov	r1, r5
  102e48:	6a60      	ldr	r0, [r4, #36]	; 0x24
  102e4a:	f7ff ff1b 	bl	102c84 <HttpRequestBuilder::build(void const*, unsigned int, unsigned int&)>
  102e4e:	9a01      	ldr	r2, [sp, #4]
  102e50:	4601      	mov	r1, r0
  102e52:	4680      	mov	r8, r0
  102e54:	6860      	ldr	r0, [r4, #4]
  102e56:	f00a f97f 	bl	10d158 <TCPSocket::send(void const*, unsigned int)>
  102e5a:	4605      	mov	r5, r0
  102e5c:	4640      	mov	r0, r8
  102e5e:	f00d f817 	bl	10fe90 <free>
  102e62:	9b01      	ldr	r3, [sp, #4]
  102e64:	429d      	cmp	r5, r3
  102e66:	d001      	beq.n	102e6c <HttpRequest::send(void const*, unsigned int)+0x78>
  102e68:	6325      	str	r5, [r4, #48]	; 0x30
  102e6a:	e0be      	b.n	102fea <HttpRequest::send(void const*, unsigned int)+0x1f6>
  102e6c:	2068      	movs	r0, #104	; 0x68
  102e6e:	f00a fc57 	bl	10d720 <operator new(unsigned int)>
  102e72:	4605      	mov	r5, r0
  102e74:	f100 030c 	add.w	r3, r0, #12
  102e78:	6043      	str	r3, [r0, #4]
  102e7a:	f104 080c 	add.w	r8, r4, #12
  102e7e:	f100 0324 	add.w	r3, r0, #36	; 0x24
  102e82:	61c3      	str	r3, [r0, #28]
  102e84:	6086      	str	r6, [r0, #8]
  102e86:	7306      	strb	r6, [r0, #12]
  102e88:	6206      	str	r6, [r0, #32]
  102e8a:	f880 6024 	strb.w	r6, [r0, #36]	; 0x24
  102e8e:	6386      	str	r6, [r0, #56]	; 0x38
  102e90:	63c6      	str	r6, [r0, #60]	; 0x3c
  102e92:	6406      	str	r6, [r0, #64]	; 0x40
  102e94:	6446      	str	r6, [r0, #68]	; 0x44
  102e96:	6486      	str	r6, [r0, #72]	; 0x48
  102e98:	64c6      	str	r6, [r0, #76]	; 0x4c
  102e9a:	6006      	str	r6, [r0, #0]
  102e9c:	f880 6050 	strb.w	r6, [r0, #80]	; 0x50
  102ea0:	f880 6051 	strb.w	r6, [r0, #81]	; 0x51
  102ea4:	6546      	str	r6, [r0, #84]	; 0x54
  102ea6:	f880 6058 	strb.w	r6, [r0, #88]	; 0x58
  102eaa:	f880 6059 	strb.w	r6, [r0, #89]	; 0x59
  102eae:	6606      	str	r6, [r0, #96]	; 0x60
  102eb0:	6646      	str	r6, [r0, #100]	; 0x64
  102eb2:	65c6      	str	r6, [r0, #92]	; 0x5c
  102eb4:	62a0      	str	r0, [r4, #40]	; 0x28
  102eb6:	4641      	mov	r1, r8
  102eb8:	a802      	add	r0, sp, #8
  102eba:	f7ff fc02 	bl	1026c2 <mbed::Callback<void (char const*, unsigned int)>::Callback(mbed::Callback<void (char const*, unsigned int)> const&)>
  102ebe:	f10d 0938 	add.w	r9, sp, #56	; 0x38
  102ec2:	a902      	add	r1, sp, #8
  102ec4:	a807      	add	r0, sp, #28
  102ec6:	f849 5d20 	str.w	r5, [r9, #-32]!
  102eca:	f8d4 a01c 	ldr.w	r10, [r4, #28]
  102ece:	f7ff fbf8 	bl	1026c2 <mbed::Callback<void (char const*, unsigned int)>::Callback(mbed::Callback<void (char const*, unsigned int)> const&)>
  102ed2:	2028      	movs	r0, #40	; 0x28
  102ed4:	f00a fc24 	bl	10d720 <operator new(unsigned int)>
  102ed8:	4605      	mov	r5, r0
  102eda:	2228      	movs	r2, #40	; 0x28
  102edc:	4631      	mov	r1, r6
  102ede:	f00d f822 	bl	10ff26 <memset>
  102ee2:	4b45      	ldr	r3, [pc, #276]	; (102ff8 <HttpRequest::send(void const*, unsigned int)+0x204>)
  102ee4:	2020      	movs	r0, #32
  102ee6:	602b      	str	r3, [r5, #0]
  102ee8:	4b44      	ldr	r3, [pc, #272]	; (102ffc <HttpRequest::send(void const*, unsigned int)+0x208>)
  102eea:	950d      	str	r5, [sp, #52]	; 0x34
  102eec:	606b      	str	r3, [r5, #4]
  102eee:	4b44      	ldr	r3, [pc, #272]	; (103000 <HttpRequest::send(void const*, unsigned int)+0x20c>)
  102ef0:	f8cd a02c 	str.w	r10, [sp, #44]	; 0x2c
  102ef4:	60ab      	str	r3, [r5, #8]
  102ef6:	4b43      	ldr	r3, [pc, #268]	; (103004 <HttpRequest::send(void const*, unsigned int)+0x210>)
  102ef8:	60eb      	str	r3, [r5, #12]
  102efa:	4b43      	ldr	r3, [pc, #268]	; (103008 <HttpRequest::send(void const*, unsigned int)+0x214>)
  102efc:	612b      	str	r3, [r5, #16]
  102efe:	4b43      	ldr	r3, [pc, #268]	; (10300c <HttpRequest::send(void const*, unsigned int)+0x218>)
  102f00:	616b      	str	r3, [r5, #20]
  102f02:	4b43      	ldr	r3, [pc, #268]	; (103010 <HttpRequest::send(void const*, unsigned int)+0x21c>)
  102f04:	622b      	str	r3, [r5, #32]
  102f06:	4b43      	ldr	r3, [pc, #268]	; (103014 <HttpRequest::send(void const*, unsigned int)+0x220>)
  102f08:	626b      	str	r3, [r5, #36]	; 0x24
  102f0a:	4b43      	ldr	r3, [pc, #268]	; (103018 <HttpRequest::send(void const*, unsigned int)+0x224>)
  102f0c:	61ab      	str	r3, [r5, #24]
  102f0e:	4b43      	ldr	r3, [pc, #268]	; (10301c <HttpRequest::send(void const*, unsigned int)+0x228>)
  102f10:	61eb      	str	r3, [r5, #28]
  102f12:	f00a fc05 	bl	10d720 <operator new(unsigned int)>
  102f16:	4605      	mov	r5, r0
  102f18:	2220      	movs	r2, #32
  102f1a:	4631      	mov	r1, r6
  102f1c:	f00d f803 	bl	10ff26 <memset>
  102f20:	2101      	movs	r1, #1
  102f22:	4628      	mov	r0, r5
  102f24:	950c      	str	r5, [sp, #48]	; 0x30
  102f26:	f004 fc39 	bl	10779c <http_parser_init>
  102f2a:	9a0b      	ldr	r2, [sp, #44]	; 0x2c
  102f2c:	9b0c      	ldr	r3, [sp, #48]	; 0x30
  102f2e:	2a02      	cmp	r2, #2
  102f30:	bf08      	it	eq
  102f32:	881a      	ldrheq	r2, [r3, #0]
  102f34:	f8c3 9018 	str.w	r9, [r3, #24]
  102f38:	bf04      	itt	eq
  102f3a:	f442 7280 	orreq.w	r2, r2, #256	; 0x100
  102f3e:	801a      	strheq	r2, [r3, #0]
  102f40:	a802      	add	r0, sp, #8
  102f42:	f7ff fbc9 	bl	1026d8 <mbed::Callback<void (char const*, unsigned int)>::~Callback()>
  102f46:	f44f 6000 	mov.w	r0, #2048	; 0x800
  102f4a:	f00c ff99 	bl	10fe80 <malloc>
  102f4e:	4605      	mov	r5, r0
  102f50:	f44f 6200 	mov.w	r2, #2048	; 0x800
  102f54:	4629      	mov	r1, r5
  102f56:	6860      	ldr	r0, [r4, #4]
  102f58:	f00a f94c 	bl	10d1f4 <TCPSocket::recv(void*, unsigned int)>
  102f5c:	1e06      	subs	r6, r0, #0
  102f5e:	dd1d      	ble.n	102f9c <HttpRequest::send(void const*, unsigned int)+0x1a8>
  102f60:	69e3      	ldr	r3, [r4, #28]
  102f62:	2b01      	cmp	r3, #1
  102f64:	d00f      	beq.n	102f86 <HttpRequest::send(void const*, unsigned int)+0x192>
  102f66:	990d      	ldr	r1, [sp, #52]	; 0x34
  102f68:	4633      	mov	r3, r6
  102f6a:	462a      	mov	r2, r5
  102f6c:	980c      	ldr	r0, [sp, #48]	; 0x30
  102f6e:	f002 fe8f 	bl	105c90 <http_parser_execute>
  102f72:	4286      	cmp	r6, r0
  102f74:	4601      	mov	r1, r0
  102f76:	d00b      	beq.n	102f90 <HttpRequest::send(void const*, unsigned int)+0x19c>
  102f78:	4632      	mov	r2, r6
  102f7a:	4829      	ldr	r0, [pc, #164]	; (103020 <HttpRequest::send(void const*, unsigned int)+0x22c>)
  102f7c:	f00e f9a0 	bl	1112c0 <iprintf>
  102f80:	4b28      	ldr	r3, [pc, #160]	; (103024 <HttpRequest::send(void const*, unsigned int)+0x230>)
  102f82:	6323      	str	r3, [r4, #48]	; 0x30
  102f84:	e00f      	b.n	102fa6 <HttpRequest::send(void const*, unsigned int)+0x1b2>
  102f86:	4632      	mov	r2, r6
  102f88:	4629      	mov	r1, r5
  102f8a:	4640      	mov	r0, r8
  102f8c:	f7ff fc00 	bl	102790 <mbed::Callback<void (char const*, unsigned int)>::call(char const*, unsigned int) const>
  102f90:	6aa3      	ldr	r3, [r4, #40]	; 0x28
  102f92:	f893 3059 	ldrb.w	r3, [r3, #89]	; 0x59
  102f96:	2b00      	cmp	r3, #0
  102f98:	d0da      	beq.n	102f50 <HttpRequest::send(void const*, unsigned int)+0x15c>
  102f9a:	e008      	b.n	102fae <HttpRequest::send(void const*, unsigned int)+0x1ba>
  102f9c:	d007      	beq.n	102fae <HttpRequest::send(void const*, unsigned int)+0x1ba>
  102f9e:	4822      	ldr	r0, [pc, #136]	; (103028 <HttpRequest::send(void const*, unsigned int)+0x234>)
  102fa0:	f00e fa1e 	bl	1113e0 <puts>
  102fa4:	6326      	str	r6, [r4, #48]	; 0x30
  102fa6:	4628      	mov	r0, r5
  102fa8:	f00c ff72 	bl	10fe90 <free>
  102fac:	e012      	b.n	102fd4 <HttpRequest::send(void const*, unsigned int)+0x1e0>
  102fae:	69e3      	ldr	r3, [r4, #28]
  102fb0:	2b01      	cmp	r3, #1
  102fb2:	d005      	beq.n	102fc0 <HttpRequest::send(void const*, unsigned int)+0x1cc>
  102fb4:	2300      	movs	r3, #0
  102fb6:	461a      	mov	r2, r3
  102fb8:	990d      	ldr	r1, [sp, #52]	; 0x34
  102fba:	980c      	ldr	r0, [sp, #48]	; 0x30
  102fbc:	f002 fe68 	bl	105c90 <http_parser_execute>
  102fc0:	4628      	mov	r0, r5
  102fc2:	f00c ff65 	bl	10fe90 <free>
  102fc6:	f894 302c 	ldrb.w	r3, [r4, #44]	; 0x2c
  102fca:	b113      	cbz	r3, 102fd2 <HttpRequest::send(void const*, unsigned int)+0x1de>
  102fcc:	6860      	ldr	r0, [r4, #4]
  102fce:	f009 fe59 	bl	10cc84 <Socket::close()>
  102fd2:	6aa7      	ldr	r7, [r4, #40]	; 0x28
  102fd4:	980c      	ldr	r0, [sp, #48]	; 0x30
  102fd6:	b108      	cbz	r0, 102fdc <HttpRequest::send(void const*, unsigned int)+0x1e8>
  102fd8:	f00a fbbe 	bl	10d758 <operator delete(void*)>
  102fdc:	980d      	ldr	r0, [sp, #52]	; 0x34
  102fde:	b108      	cbz	r0, 102fe4 <HttpRequest::send(void const*, unsigned int)+0x1f0>
  102fe0:	f00a fbba 	bl	10d758 <operator delete(void*)>
  102fe4:	a807      	add	r0, sp, #28
  102fe6:	f7ff fb77 	bl	1026d8 <mbed::Callback<void (char const*, unsigned int)>::~Callback()>
  102fea:	4638      	mov	r0, r7
  102fec:	b00e      	add	sp, #56	; 0x38
  102fee:	e8bd 87f0 	ldmia.w	sp!, {r4, r5, r6, r7, r8, r9, r10, pc}
  102ff2:	bf00      	nop
  102ff4:	fffff7cc 	.word	0xfffff7cc
  102ff8:	001022ad 	.word	0x001022ad
  102ffc:	001023ef 	.word	0x001023ef
  103000:	001023b1 	.word	0x001023b1
  103004:	0010295b 	.word	0x0010295b
  103008:	001028d3 	.word	0x001028d3
  10300c:	00102515 	.word	0x00102515
  103010:	001022bf 	.word	0x001022bf
  103014:	001022cd 	.word	0x001022cd
  103018:	001027c1 	.word	0x001027c1
  10301c:	001022b1 	.word	0x001022b1
  103020:	00116100 	.word	0x00116100
  103024:	fffff7cb 	.word	0xfffff7cb
  103028:	00116139 	.word	0x00116139
  10302c:	00000000 	.word	0x00000000

00103030 <main>:
  103030:	e92d 4ff0 	stmdb	sp!, {r4, r5, r6, r7, r8, r9, r10, r11, lr}
  103034:	498c      	ldr	r1, [pc, #560]	; (103268 <main+0x238>)
  103036:	f5ad 7d69 	sub.w	sp, sp, #932	; 0x3a4
  10303a:	2400      	movs	r4, #0
  10303c:	488b      	ldr	r0, [pc, #556]	; (10326c <main+0x23c>)
  10303e:	9417      	str	r4, [sp, #92]	; 0x5c
  103040:	f00a fd00 	bl	10da44 <mbed::Stream::printf(char const*, ...)>
  103044:	9400      	str	r4, [sp, #0]
  103046:	4623      	mov	r3, r4
  103048:	4a89      	ldr	r2, [pc, #548]	; (103270 <main+0x240>)
  10304a:	498a      	ldr	r1, [pc, #552]	; (103274 <main+0x244>)
  10304c:	488a      	ldr	r0, [pc, #552]	; (103278 <main+0x248>)
  10304e:	f005 f8d3 	bl	1081f8 <WizFi250Interface::connect(char const*, char const*, nsapi_security, unsigned char)>
  103052:	b130      	cbz	r0, 103062 <main+0x32>
  103054:	4989      	ldr	r1, [pc, #548]	; (10327c <main+0x24c>)
  103056:	4885      	ldr	r0, [pc, #532]	; (10326c <main+0x23c>)
  103058:	f00a fcf4 	bl	10da44 <mbed::Stream::printf(char const*, ...)>
  10305c:	2001      	movs	r0, #1
  10305e:	f002 b944 	b.w	1052ea <main+0x22ba>
  103062:	4987      	ldr	r1, [pc, #540]	; (103280 <main+0x250>)
  103064:	4881      	ldr	r0, [pc, #516]	; (10326c <main+0x23c>)
  103066:	f00a fced 	bl	10da44 <mbed::Stream::printf(char const*, ...)>
  10306a:	4883      	ldr	r0, [pc, #524]	; (103278 <main+0x248>)
  10306c:	f005 f900 	bl	108270 <WizFi250Interface::get_ip_address()>
  103070:	4984      	ldr	r1, [pc, #528]	; (103284 <main+0x254>)
  103072:	4602      	mov	r2, r0
  103074:	487d      	ldr	r0, [pc, #500]	; (10326c <main+0x23c>)
  103076:	f00a fce5 	bl	10da44 <mbed::Stream::printf(char const*, ...)>
  10307a:	2101      	movs	r1, #1
  10307c:	4882      	ldr	r0, [pc, #520]	; (103288 <main+0x258>)
  10307e:	f007 ff91 	bl	10afa4 <gpio_write>
  103082:	2102      	movs	r1, #2
  103084:	4881      	ldr	r0, [pc, #516]	; (10328c <main+0x25c>)
  103086:	f004 fef9 	bl	107e7c <NOA1305::init(NOA1305_IntTime)>
  10308a:	b138      	cbz	r0, 10309c <main+0x6c>
  10308c:	4980      	ldr	r1, [pc, #512]	; (103290 <main+0x260>)
  10308e:	4877      	ldr	r0, [pc, #476]	; (10326c <main+0x23c>)
  103090:	f00a fcd8 	bl	10da44 <mbed::Stream::printf(char const*, ...)>
  103094:	f04f 30ff 	mov.w	r0, #4294967295
  103098:	f002 b927 	b.w	1052ea <main+0x22ba>
  10309c:	497d      	ldr	r1, [pc, #500]	; (103294 <main+0x264>)
  10309e:	4873      	ldr	r0, [pc, #460]	; (10326c <main+0x23c>)
  1030a0:	f00a fcd0 	bl	10da44 <mbed::Stream::printf(char const*, ...)>
  1030a4:	497c      	ldr	r1, [pc, #496]	; (103298 <main+0x268>)
  1030a6:	487d      	ldr	r0, [pc, #500]	; (10329c <main+0x26c>)
  1030a8:	f004 fde8 	bl	107c7c <NCS36000::registerCallback(void (*)())>
  1030ac:	497c      	ldr	r1, [pc, #496]	; (1032a0 <main+0x270>)
  1030ae:	486f      	ldr	r0, [pc, #444]	; (10326c <main+0x23c>)
  1030b0:	f00a fcc8 	bl	10da44 <mbed::Stream::printf(char const*, ...)>
  1030b4:	487b      	ldr	r0, [pc, #492]	; (1032a4 <main+0x274>)
  1030b6:	f002 fb1b 	bl	1056f0 <NRF24L01P::init()>
  1030ba:	4602      	mov	r2, r0
  1030bc:	b120      	cbz	r0, 1030c8 <main+0x98>
  1030be:	497a      	ldr	r1, [pc, #488]	; (1032a8 <main+0x278>)
  1030c0:	486a      	ldr	r0, [pc, #424]	; (10326c <main+0x23c>)
  1030c2:	f00a fcbf 	bl	10da44 <mbed::Stream::printf(char const*, ...)>
  1030c6:	e003      	b.n	1030d0 <main+0xa0>
  1030c8:	4978      	ldr	r1, [pc, #480]	; (1032ac <main+0x27c>)
  1030ca:	4868      	ldr	r0, [pc, #416]	; (10326c <main+0x23c>)
  1030cc:	f00a fcba 	bl	10da44 <mbed::Stream::printf(char const*, ...)>
  1030d0:	4b77      	ldr	r3, [pc, #476]	; (1032b0 <main+0x280>)
  1030d2:	ac20      	add	r4, sp, #128	; 0x80
  1030d4:	ad84      	add	r5, sp, #528	; 0x210
  1030d6:	6023      	str	r3, [r4, #0]
  1030d8:	4b76      	ldr	r3, [pc, #472]	; (1032b4 <main+0x284>)
  1030da:	4621      	mov	r1, r4
  1030dc:	4628      	mov	r0, r5
  1030de:	60e3      	str	r3, [r4, #12]
  1030e0:	f7ff fae4 	bl	1026ac <mbed::Callback<void ()>::Callback(mbed::Callback<void ()> const&)>
  1030e4:	4874      	ldr	r0, [pc, #464]	; (1032b8 <main+0x288>)
  1030e6:	f7ff fa7f 	bl	1025e8 <mbed::Callback<void ()>::~Callback()>
  1030ea:	4629      	mov	r1, r5
  1030ec:	4872      	ldr	r0, [pc, #456]	; (1032b8 <main+0x288>)
  1030ee:	f7ff fadd 	bl	1026ac <mbed::Callback<void ()>::Callback(mbed::Callback<void ()> const&)>
  1030f2:	a35b      	add	r3, pc, #364	; (adr r3, 103260 <main+0x230>)
  1030f4:	e9d3 2300 	ldrd	r2, r3, [r3]
  1030f8:	4870      	ldr	r0, [pc, #448]	; (1032bc <main+0x28c>)
  1030fa:	f009 fc37 	bl	10c96c <mbed::Ticker::setup(unsigned long long)>
  1030fe:	4628      	mov	r0, r5
  103100:	f7ff fa72 	bl	1025e8 <mbed::Callback<void ()>::~Callback()>
  103104:	4620      	mov	r0, r4
  103106:	f7ff fa6f 	bl	1025e8 <mbed::Callback<void ()>::~Callback()>
  10310a:	496d      	ldr	r1, [pc, #436]	; (1032c0 <main+0x290>)
  10310c:	4857      	ldr	r0, [pc, #348]	; (10326c <main+0x23c>)
  10310e:	f00a fc99 	bl	10da44 <mbed::Stream::printf(char const*, ...)>
  103112:	4629      	mov	r1, r5
  103114:	4620      	mov	r0, r4
  103116:	f7ff f82d 	bl	102174 <FillIDS(unsigned long*, char**)>
  10311a:	4f6a      	ldr	r7, [pc, #424]	; (1032c4 <main+0x294>)
  10311c:	2600      	movs	r6, #0
  10311e:	683b      	ldr	r3, [r7, #0]
  103120:	429e      	cmp	r6, r3
  103122:	db13      	blt.n	10314c <main+0x11c>
  103124:	2300      	movs	r3, #0
  103126:	9313      	str	r3, [sp, #76]	; 0x4c
  103128:	9310      	str	r3, [sp, #64]	; 0x40
  10312a:	930f      	str	r3, [sp, #60]	; 0x3c
  10312c:	930e      	str	r3, [sp, #56]	; 0x38
  10312e:	4b66      	ldr	r3, [pc, #408]	; (1032c8 <main+0x298>)
  103130:	f04f 0b00 	mov.w	r11, #0
  103134:	465e      	mov	r6, r11
  103136:	46da      	mov	r10, r11
  103138:	f8cd b054 	str.w	r11, [sp, #84]	; 0x54
  10313c:	f8cd b050 	str.w	r11, [sp, #80]	; 0x50
  103140:	46d9      	mov	r9, r11
  103142:	9312      	str	r3, [sp, #72]	; 0x48
  103144:	f8cd b044 	str.w	r11, [sp, #68]	; 0x44
  103148:	465c      	mov	r4, r11
  10314a:	e056      	b.n	1031fa <main+0x1ca>
  10314c:	f854 2026 	ldr.w	r2, [r4, r6, lsl #2]
  103150:	495e      	ldr	r1, [pc, #376]	; (1032cc <main+0x29c>)
  103152:	3601      	adds	r6, #1
  103154:	4845      	ldr	r0, [pc, #276]	; (10326c <main+0x23c>)
  103156:	f00a fc75 	bl	10da44 <mbed::Stream::printf(char const*, ...)>
  10315a:	f855 2026 	ldr.w	r2, [r5, r6, lsl #2]
  10315e:	495c      	ldr	r1, [pc, #368]	; (1032d0 <main+0x2a0>)
  103160:	4842      	ldr	r0, [pc, #264]	; (10326c <main+0x23c>)
  103162:	f00a fc6f 	bl	10da44 <mbed::Stream::printf(char const*, ...)>
  103166:	e7da      	b.n	10311e <main+0xee>
  103168:	b2ef      	uxtb	r7, r5
  10316a:	f047 0240 	orr.w	r2, r7, #64	; 0x40
  10316e:	2107      	movs	r1, #7
  103170:	484c      	ldr	r0, [pc, #304]	; (1032a4 <main+0x274>)
  103172:	f002 fa94 	bl	10569e <NRF24L01P::writeRx(unsigned char, unsigned char)>
  103176:	06ab      	lsls	r3, r5, #26
  103178:	d505      	bpl.n	103186 <main+0x156>
  10317a:	f047 0220 	orr.w	r2, r7, #32
  10317e:	2107      	movs	r1, #7
  103180:	4848      	ldr	r0, [pc, #288]	; (1032a4 <main+0x274>)
  103182:	f002 fa8c 	bl	10569e <NRF24L01P::writeRx(unsigned char, unsigned char)>
  103186:	aa18      	add	r2, sp, #96	; 0x60
  103188:	2105      	movs	r1, #5
  10318a:	4846      	ldr	r0, [pc, #280]	; (1032a4 <main+0x274>)
  10318c:	f002 fb24 	bl	1057d8 <NRF24L01P::ReadPayload(unsigned char, unsigned char*)>
  103190:	21e2      	movs	r1, #226	; 0xe2
  103192:	4844      	ldr	r0, [pc, #272]	; (1032a4 <main+0x274>)
  103194:	f002 fa26 	bl	1055e4 <NRF24L01P::WriteCommand(unsigned char)>
  103198:	f89d 5060 	ldrb.w	r5, [sp, #96]	; 0x60
  10319c:	2d01      	cmp	r5, #1
  10319e:	f040 80a5 	bne.w	1032ec <main+0x2bc>
  1031a2:	494c      	ldr	r1, [pc, #304]	; (1032d4 <main+0x2a4>)
  1031a4:	4831      	ldr	r0, [pc, #196]	; (10326c <main+0x23c>)
  1031a6:	f00a fc4d 	bl	10da44 <mbed::Stream::printf(char const*, ...)>
  1031aa:	f89d 2061 	ldrb.w	r2, [sp, #97]	; 0x61
  1031ae:	494a      	ldr	r1, [pc, #296]	; (1032d8 <main+0x2a8>)
  1031b0:	482e      	ldr	r0, [pc, #184]	; (10326c <main+0x23c>)
  1031b2:	f00a fc47 	bl	10da44 <mbed::Stream::printf(char const*, ...)>
  1031b6:	f89d 3061 	ldrb.w	r3, [sp, #97]	; 0x61
  1031ba:	2b02      	cmp	r3, #2
  1031bc:	d118      	bne.n	1031f0 <main+0x1c0>
  1031be:	f89d 3063 	ldrb.w	r3, [sp, #99]	; 0x63
  1031c2:	f89d 0062 	ldrb.w	r0, [sp, #98]	; 0x62
  1031c6:	46aa      	mov	r10, r5
  1031c8:	eb03 2000 	add.w	r0, r3, r0, lsl #8
  1031cc:	1100      	asrs	r0, r0, #4
  1031ce:	f00b fb7d 	bl	10e8cc <__aeabi_i2d>
  1031d2:	2200      	movs	r2, #0
  1031d4:	4b41      	ldr	r3, [pc, #260]	; (1032dc <main+0x2ac>)
  1031d6:	f00b fbdf 	bl	10e998 <__aeabi_dmul>
  1031da:	f00b fe77 	bl	10eecc <__aeabi_d2f>
  1031de:	9013      	str	r0, [sp, #76]	; 0x4c
  1031e0:	f00b fb86 	bl	10e8f0 <__aeabi_f2d>
  1031e4:	4602      	mov	r2, r0
  1031e6:	460b      	mov	r3, r1
  1031e8:	4820      	ldr	r0, [pc, #128]	; (10326c <main+0x23c>)
  1031ea:	493d      	ldr	r1, [pc, #244]	; (1032e0 <main+0x2b0>)
  1031ec:	f00a fc2a 	bl	10da44 <mbed::Stream::printf(char const*, ...)>
  1031f0:	4b3c      	ldr	r3, [pc, #240]	; (1032e4 <main+0x2b4>)
  1031f2:	681f      	ldr	r7, [r3, #0]
  1031f4:	2f01      	cmp	r7, #1
  1031f6:	f000 8205 	beq.w	103604 <main+0x5d4>
  1031fa:	227b      	movs	r2, #123	; 0x7b
  1031fc:	2100      	movs	r1, #0
  1031fe:	4829      	ldr	r0, [pc, #164]	; (1032a4 <main+0x274>)
  103200:	f002 fa4d 	bl	10569e <NRF24L01P::writeRx(unsigned char, unsigned char)>
  103204:	222c      	movs	r2, #44	; 0x2c
  103206:	2105      	movs	r1, #5
  103208:	4826      	ldr	r0, [pc, #152]	; (1032a4 <main+0x274>)
  10320a:	f002 fa48 	bl	10569e <NRF24L01P::writeRx(unsigned char, unsigned char)>
  10320e:	2107      	movs	r1, #7
  103210:	4824      	ldr	r0, [pc, #144]	; (1032a4 <main+0x274>)
  103212:	f002 fa28 	bl	105666 <NRF24L01P::registerRead(unsigned char)>
  103216:	2300      	movs	r3, #0
  103218:	4605      	mov	r5, r0
  10321a:	a917      	add	r1, sp, #92	; 0x5c
  10321c:	481b      	ldr	r0, [pc, #108]	; (10328c <main+0x25c>)
  10321e:	f88d 3060 	strb.w	r3, [sp, #96]	; 0x60
  103222:	f88d 3061 	strb.w	r3, [sp, #97]	; 0x61
  103226:	f88d 3062 	strb.w	r3, [sp, #98]	; 0x62
  10322a:	f88d 3063 	strb.w	r3, [sp, #99]	; 0x63
  10322e:	f88d 3064 	strb.w	r3, [sp, #100]	; 0x64
  103232:	f88d 3068 	strb.w	r3, [sp, #104]	; 0x68
  103236:	f88d 3069 	strb.w	r3, [sp, #105]	; 0x69
  10323a:	f88d 306a 	strb.w	r3, [sp, #106]	; 0x6a
  10323e:	f88d 306b 	strb.w	r3, [sp, #107]	; 0x6b
  103242:	f88d 306c 	strb.w	r3, [sp, #108]	; 0x6c
  103246:	f004 fe8f 	bl	107f68 <NOA1305::read(int&)>
  10324a:	4927      	ldr	r1, [pc, #156]	; (1032e8 <main+0x2b8>)
  10324c:	480f      	ldr	r0, [pc, #60]	; (10328c <main+0x25c>)
  10324e:	f004 fef7 	bl	108040 <NOA1305::getAbmienceInLux(float)>
  103252:	066a      	lsls	r2, r5, #25
  103254:	4680      	mov	r8, r0
  103256:	d5cb      	bpl.n	1031f0 <main+0x1c0>
  103258:	e786      	b.n	103168 <main+0x138>
  10325a:	bf00      	nop
  10325c:	f3af 8000 	nop.w
  103260:	05f5e100 	.word	0x05f5e100
  103264:	00000000 	.word	0x00000000
  103268:	0011616d 	.word	0x0011616d
  10326c:	3fff8184 	.word	0x3fff8184
  103270:	00116182 	.word	0x00116182
  103274:	0011618f 	.word	0x0011618f
  103278:	3fff4890 	.word	0x3fff4890
  10327c:	00116198 	.word	0x00116198
  103280:	001161bc 	.word	0x001161bc
  103284:	001161d8 	.word	0x001161d8
  103288:	3fff8144 	.word	0x3fff8144
  10328c:	3fff4780 	.word	0x3fff4780
  103290:	001161f5 	.word	0x001161f5
  103294:	00116214 	.word	0x00116214
  103298:	00102311 	.word	0x00102311
  10329c:	3fff81cc 	.word	0x3fff81cc
  1032a0:	00116226 	.word	0x00116226
  1032a4:	3fff8100 	.word	0x3fff8100
  1032a8:	00116238 	.word	0x00116238
  1032ac:	0011626f 	.word	0x0011626f
  1032b0:	001022d1 	.word	0x001022d1
  1032b4:	00115ff4 	.word	0x00115ff4
  1032b8:	3fff81f8 	.word	0x3fff81f8
  1032bc:	3fff81d0 	.word	0x3fff81d0
  1032c0:	0011629b 	.word	0x0011629b
  1032c4:	3fff40c4 	.word	0x3fff40c4
  1032c8:	001164ed 	.word	0x001164ed
  1032cc:	001162b0 	.word	0x001162b0
  1032d0:	001162ca 	.word	0x001162ca
  1032d4:	001162f3 	.word	0x001162f3
  1032d8:	00116316 	.word	0x00116316
  1032dc:	3fb00000 	.word	0x3fb00000
  1032e0:	0011632e 	.word	0x0011632e
  1032e4:	3fff8244 	.word	0x3fff8244
  1032e8:	40f66666 	.word	0x40f66666
  1032ec:	2d02      	cmp	r5, #2
  1032ee:	f040 8093 	bne.w	103418 <main+0x3e8>
  1032f2:	49af      	ldr	r1, [pc, #700]	; (1035b0 <main+0x580>)
  1032f4:	48af      	ldr	r0, [pc, #700]	; (1035b4 <main+0x584>)
  1032f6:	f00a fba5 	bl	10da44 <mbed::Stream::printf(char const*, ...)>
  1032fa:	f89d 2061 	ldrb.w	r2, [sp, #97]	; 0x61
  1032fe:	49ae      	ldr	r1, [pc, #696]	; (1035b8 <main+0x588>)
  103300:	48ac      	ldr	r0, [pc, #688]	; (1035b4 <main+0x584>)
  103302:	f00a fb9f 	bl	10da44 <mbed::Stream::printf(char const*, ...)>
  103306:	f89d 3061 	ldrb.w	r3, [sp, #97]	; 0x61
  10330a:	2b0e      	cmp	r3, #14
  10330c:	d128      	bne.n	103360 <main+0x330>
  10330e:	49ab      	ldr	r1, [pc, #684]	; (1035bc <main+0x58c>)
  103310:	48a8      	ldr	r0, [pc, #672]	; (1035b4 <main+0x584>)
  103312:	f00a fb97 	bl	10da44 <mbed::Stream::printf(char const*, ...)>
  103316:	f8bd 0062 	ldrh.w	r0, [sp, #98]	; 0x62
  10331a:	f00b fee1 	bl	10f0e0 <__aeabi_i2f>
  10331e:	f00b fae7 	bl	10e8f0 <__aeabi_f2d>
  103322:	a39f      	add	r3, pc, #636	; (adr r3, 1035a0 <main+0x570>)
  103324:	e9d3 2300 	ldrd	r2, r3, [r3]
  103328:	f00b fb36 	bl	10e998 <__aeabi_dmul>
  10332c:	f00b fdce 	bl	10eecc <__aeabi_d2f>
  103330:	f00b fade 	bl	10e8f0 <__aeabi_f2d>
  103334:	a39c      	add	r3, pc, #624	; (adr r3, 1035a8 <main+0x578>)
  103336:	e9d3 2300 	ldrd	r2, r3, [r3]
  10333a:	f00b fc57 	bl	10ebec <__aeabi_ddiv>
  10333e:	2200      	movs	r2, #0
  103340:	4b9f      	ldr	r3, [pc, #636]	; (1035c0 <main+0x590>)
  103342:	f00b fb29 	bl	10e998 <__aeabi_dmul>
  103346:	f00b fdc1 	bl	10eecc <__aeabi_d2f>
  10334a:	900e      	str	r0, [sp, #56]	; 0x38
  10334c:	f00b fad0 	bl	10e8f0 <__aeabi_f2d>
  103350:	4602      	mov	r2, r0
  103352:	460b      	mov	r3, r1
  103354:	4897      	ldr	r0, [pc, #604]	; (1035b4 <main+0x584>)
  103356:	499b      	ldr	r1, [pc, #620]	; (1035c4 <main+0x594>)
  103358:	f00a fb74 	bl	10da44 <mbed::Stream::printf(char const*, ...)>
  10335c:	f04f 0901 	mov.w	r9, #1
  103360:	f89d 3061 	ldrb.w	r3, [sp, #97]	; 0x61
  103364:	2b08      	cmp	r3, #8
  103366:	d128      	bne.n	1033ba <main+0x38a>
  103368:	4997      	ldr	r1, [pc, #604]	; (1035c8 <main+0x598>)
  10336a:	4892      	ldr	r0, [pc, #584]	; (1035b4 <main+0x584>)
  10336c:	f00a fb6a 	bl	10da44 <mbed::Stream::printf(char const*, ...)>
  103370:	f8bd 0062 	ldrh.w	r0, [sp, #98]	; 0x62
  103374:	f00b feb4 	bl	10f0e0 <__aeabi_i2f>
  103378:	f00b faba 	bl	10e8f0 <__aeabi_f2d>
  10337c:	a388      	add	r3, pc, #544	; (adr r3, 1035a0 <main+0x570>)
  10337e:	e9d3 2300 	ldrd	r2, r3, [r3]
  103382:	f00b fb09 	bl	10e998 <__aeabi_dmul>
  103386:	f00b fda1 	bl	10eecc <__aeabi_d2f>
  10338a:	f00b fab1 	bl	10e8f0 <__aeabi_f2d>
  10338e:	a386      	add	r3, pc, #536	; (adr r3, 1035a8 <main+0x578>)
  103390:	e9d3 2300 	ldrd	r2, r3, [r3]
  103394:	f00b fc2a 	bl	10ebec <__aeabi_ddiv>
  103398:	2200      	movs	r2, #0
  10339a:	4b89      	ldr	r3, [pc, #548]	; (1035c0 <main+0x590>)
  10339c:	f00b fafc 	bl	10e998 <__aeabi_dmul>
  1033a0:	f00b fd94 	bl	10eecc <__aeabi_d2f>
  1033a4:	900f      	str	r0, [sp, #60]	; 0x3c
  1033a6:	f00b faa3 	bl	10e8f0 <__aeabi_f2d>
  1033aa:	460b      	mov	r3, r1
  1033ac:	4602      	mov	r2, r0
  1033ae:	4987      	ldr	r1, [pc, #540]	; (1035cc <main+0x59c>)
  1033b0:	4880      	ldr	r0, [pc, #512]	; (1035b4 <main+0x584>)
  1033b2:	f00a fb47 	bl	10da44 <mbed::Stream::printf(char const*, ...)>
  1033b6:	2301      	movs	r3, #1
  1033b8:	9314      	str	r3, [sp, #80]	; 0x50
  1033ba:	f89d 3061 	ldrb.w	r3, [sp, #97]	; 0x61
  1033be:	2b0d      	cmp	r3, #13
  1033c0:	f47f af16 	bne.w	1031f0 <main+0x1c0>
  1033c4:	4982      	ldr	r1, [pc, #520]	; (1035d0 <main+0x5a0>)
  1033c6:	487b      	ldr	r0, [pc, #492]	; (1035b4 <main+0x584>)
  1033c8:	f00a fb3c 	bl	10da44 <mbed::Stream::printf(char const*, ...)>
  1033cc:	f8bd 0062 	ldrh.w	r0, [sp, #98]	; 0x62
  1033d0:	f00b fe86 	bl	10f0e0 <__aeabi_i2f>
  1033d4:	f00b fa8c 	bl	10e8f0 <__aeabi_f2d>
  1033d8:	a371      	add	r3, pc, #452	; (adr r3, 1035a0 <main+0x570>)
  1033da:	e9d3 2300 	ldrd	r2, r3, [r3]
  1033de:	f00b fadb 	bl	10e998 <__aeabi_dmul>
  1033e2:	f00b fd73 	bl	10eecc <__aeabi_d2f>
  1033e6:	f00b fa83 	bl	10e8f0 <__aeabi_f2d>
  1033ea:	a36f      	add	r3, pc, #444	; (adr r3, 1035a8 <main+0x578>)
  1033ec:	e9d3 2300 	ldrd	r2, r3, [r3]
  1033f0:	f00b fbfc 	bl	10ebec <__aeabi_ddiv>
  1033f4:	2200      	movs	r2, #0
  1033f6:	4b72      	ldr	r3, [pc, #456]	; (1035c0 <main+0x590>)
  1033f8:	f00b face 	bl	10e998 <__aeabi_dmul>
  1033fc:	f00b fd66 	bl	10eecc <__aeabi_d2f>
  103400:	9010      	str	r0, [sp, #64]	; 0x40
  103402:	f00b fa75 	bl	10e8f0 <__aeabi_f2d>
  103406:	460b      	mov	r3, r1
  103408:	4602      	mov	r2, r0
  10340a:	4972      	ldr	r1, [pc, #456]	; (1035d4 <main+0x5a4>)
  10340c:	4869      	ldr	r0, [pc, #420]	; (1035b4 <main+0x584>)
  10340e:	f00a fb19 	bl	10da44 <mbed::Stream::printf(char const*, ...)>
  103412:	2301      	movs	r3, #1
  103414:	9315      	str	r3, [sp, #84]	; 0x54
  103416:	e6eb      	b.n	1031f0 <main+0x1c0>
  103418:	2d03      	cmp	r5, #3
  10341a:	d11e      	bne.n	10345a <main+0x42a>
  10341c:	496e      	ldr	r1, [pc, #440]	; (1035d8 <main+0x5a8>)
  10341e:	4865      	ldr	r0, [pc, #404]	; (1035b4 <main+0x584>)
  103420:	f00a fb10 	bl	10da44 <mbed::Stream::printf(char const*, ...)>
  103424:	f89d 2061 	ldrb.w	r2, [sp, #97]	; 0x61
  103428:	4963      	ldr	r1, [pc, #396]	; (1035b8 <main+0x588>)
  10342a:	4862      	ldr	r0, [pc, #392]	; (1035b4 <main+0x584>)
  10342c:	f00a fb0a 	bl	10da44 <mbed::Stream::printf(char const*, ...)>
  103430:	f89d b062 	ldrb.w	r11, [sp, #98]	; 0x62
  103434:	f1bb 0f01 	cmp.w	r11, #1
  103438:	d105      	bne.n	103446 <main+0x416>
  10343a:	4968      	ldr	r1, [pc, #416]	; (1035dc <main+0x5ac>)
  10343c:	485d      	ldr	r0, [pc, #372]	; (1035b4 <main+0x584>)
  10343e:	f00a fb01 	bl	10da44 <mbed::Stream::printf(char const*, ...)>
  103442:	465e      	mov	r6, r11
  103444:	e6d4      	b.n	1031f0 <main+0x1c0>
  103446:	f1bb 0f00 	cmp.w	r11, #0
  10344a:	f47f aed1 	bne.w	1031f0 <main+0x1c0>
  10344e:	4964      	ldr	r1, [pc, #400]	; (1035e0 <main+0x5b0>)
  103450:	4858      	ldr	r0, [pc, #352]	; (1035b4 <main+0x584>)
  103452:	f00a faf7 	bl	10da44 <mbed::Stream::printf(char const*, ...)>
  103456:	2601      	movs	r6, #1
  103458:	e6ca      	b.n	1031f0 <main+0x1c0>
  10345a:	2d1e      	cmp	r5, #30
  10345c:	f47f aec8 	bne.w	1031f0 <main+0x1c0>
  103460:	4960      	ldr	r1, [pc, #384]	; (1035e4 <main+0x5b4>)
  103462:	4854      	ldr	r0, [pc, #336]	; (1035b4 <main+0x584>)
  103464:	f00a faee 	bl	10da44 <mbed::Stream::printf(char const*, ...)>
  103468:	f89d 2061 	ldrb.w	r2, [sp, #97]	; 0x61
  10346c:	495e      	ldr	r1, [pc, #376]	; (1035e8 <main+0x5b8>)
  10346e:	4851      	ldr	r0, [pc, #324]	; (1035b4 <main+0x584>)
  103470:	f00a fae8 	bl	10da44 <mbed::Stream::printf(char const*, ...)>
  103474:	f89d 2062 	ldrb.w	r2, [sp, #98]	; 0x62
  103478:	495b      	ldr	r1, [pc, #364]	; (1035e8 <main+0x5b8>)
  10347a:	484e      	ldr	r0, [pc, #312]	; (1035b4 <main+0x584>)
  10347c:	f00a fae2 	bl	10da44 <mbed::Stream::printf(char const*, ...)>
  103480:	f89d 2063 	ldrb.w	r2, [sp, #99]	; 0x63
  103484:	4958      	ldr	r1, [pc, #352]	; (1035e8 <main+0x5b8>)
  103486:	484b      	ldr	r0, [pc, #300]	; (1035b4 <main+0x584>)
  103488:	f00a fadc 	bl	10da44 <mbed::Stream::printf(char const*, ...)>
  10348c:	f89d 2064 	ldrb.w	r2, [sp, #100]	; 0x64
  103490:	4955      	ldr	r1, [pc, #340]	; (1035e8 <main+0x5b8>)
  103492:	4848      	ldr	r0, [pc, #288]	; (1035b4 <main+0x584>)
  103494:	f00a fad6 	bl	10da44 <mbed::Stream::printf(char const*, ...)>
  103498:	f89d 3062 	ldrb.w	r3, [sp, #98]	; 0x62
  10349c:	f89d 5061 	ldrb.w	r5, [sp, #97]	; 0x61
  1034a0:	041b      	lsls	r3, r3, #16
  1034a2:	ea43 6305 	orr.w	r3, r3, r5, lsl #24
  1034a6:	f89d 5064 	ldrb.w	r5, [sp, #100]	; 0x64
  1034aa:	4950      	ldr	r1, [pc, #320]	; (1035ec <main+0x5bc>)
  1034ac:	432b      	orrs	r3, r5
  1034ae:	f89d 5063 	ldrb.w	r5, [sp, #99]	; 0x63
  1034b2:	4840      	ldr	r0, [pc, #256]	; (1035b4 <main+0x584>)
  1034b4:	ea43 2505 	orr.w	r5, r3, r5, lsl #8
  1034b8:	462a      	mov	r2, r5
  1034ba:	f00a fac3 	bl	10da44 <mbed::Stream::printf(char const*, ...)>
  1034be:	4b4c      	ldr	r3, [pc, #304]	; (1035f0 <main+0x5c0>)
  1034c0:	2201      	movs	r2, #1
  1034c2:	6818      	ldr	r0, [r3, #0]
  1034c4:	2300      	movs	r3, #0
  1034c6:	461c      	mov	r4, r3
  1034c8:	af20      	add	r7, sp, #128	; 0x80
  1034ca:	f50d 7e04 	add.w	lr, sp, #528	; 0x210
  1034ce:	4283      	cmp	r3, r0
  1034d0:	da0b      	bge.n	1034ea <main+0x4ba>
  1034d2:	f857 1023 	ldr.w	r1, [r7, r3, lsl #2]
  1034d6:	3301      	adds	r3, #1
  1034d8:	428d      	cmp	r5, r1
  1034da:	bf01      	itttt	eq
  1034dc:	f85e 1022 	ldreq.w	r1, [lr, r2, lsl #2]
  1034e0:	9211      	streq	r2, [sp, #68]	; 0x44
  1034e2:	9112      	streq	r1, [sp, #72]	; 0x48
  1034e4:	2401      	moveq	r4, #1
  1034e6:	3201      	adds	r2, #1
  1034e8:	e7f1      	b.n	1034ce <main+0x49e>
  1034ea:	b34c      	cbz	r4, 103540 <main+0x510>
  1034ec:	4941      	ldr	r1, [pc, #260]	; (1035f4 <main+0x5c4>)
  1034ee:	4831      	ldr	r0, [pc, #196]	; (1035b4 <main+0x584>)
  1034f0:	f00a faa8 	bl	10da44 <mbed::Stream::printf(char const*, ...)>
  1034f4:	227a      	movs	r2, #122	; 0x7a
  1034f6:	2100      	movs	r1, #0
  1034f8:	483f      	ldr	r0, [pc, #252]	; (1035f8 <main+0x5c8>)
  1034fa:	f002 f8d0 	bl	10569e <NRF24L01P::writeRx(unsigned char, unsigned char)>
  1034fe:	2228      	movs	r2, #40	; 0x28
  103500:	2105      	movs	r1, #5
  103502:	483d      	ldr	r0, [pc, #244]	; (1035f8 <main+0x5c8>)
  103504:	f002 f8cb 	bl	10569e <NRF24L01P::writeRx(unsigned char, unsigned char)>
  103508:	2270      	movs	r2, #112	; 0x70
  10350a:	2107      	movs	r1, #7
  10350c:	483a      	ldr	r0, [pc, #232]	; (1035f8 <main+0x5c8>)
  10350e:	f002 f8c6 	bl	10569e <NRF24L01P::writeRx(unsigned char, unsigned char)>
  103512:	2346      	movs	r3, #70	; 0x46
  103514:	aa1a      	add	r2, sp, #104	; 0x68
  103516:	2105      	movs	r1, #5
  103518:	4837      	ldr	r0, [pc, #220]	; (1035f8 <main+0x5c8>)
  10351a:	f88d 3068 	strb.w	r3, [sp, #104]	; 0x68
  10351e:	f88d 4069 	strb.w	r4, [sp, #105]	; 0x69
  103522:	f002 f989 	bl	105838 <NRF24L01P::WritePayload(unsigned char, unsigned char*)>
  103526:	4935      	ldr	r1, [pc, #212]	; (1035fc <main+0x5cc>)
  103528:	4822      	ldr	r0, [pc, #136]	; (1035b4 <main+0x584>)
  10352a:	f00a fa8b 	bl	10da44 <mbed::Stream::printf(char const*, ...)>
  10352e:	21e2      	movs	r1, #226	; 0xe2
  103530:	4831      	ldr	r0, [pc, #196]	; (1035f8 <main+0x5c8>)
  103532:	f002 f857 	bl	1055e4 <NRF24L01P::WriteCommand(unsigned char)>
  103536:	21e1      	movs	r1, #225	; 0xe1
  103538:	482f      	ldr	r0, [pc, #188]	; (1035f8 <main+0x5c8>)
  10353a:	f002 f853 	bl	1055e4 <NRF24L01P::WriteCommand(unsigned char)>
  10353e:	e657      	b.n	1031f0 <main+0x1c0>
  103540:	492f      	ldr	r1, [pc, #188]	; (103600 <main+0x5d0>)
  103542:	481c      	ldr	r0, [pc, #112]	; (1035b4 <main+0x584>)
  103544:	f00a fa7e 	bl	10da44 <mbed::Stream::printf(char const*, ...)>
  103548:	227a      	movs	r2, #122	; 0x7a
  10354a:	2100      	movs	r1, #0
  10354c:	482a      	ldr	r0, [pc, #168]	; (1035f8 <main+0x5c8>)
  10354e:	f002 f8a6 	bl	10569e <NRF24L01P::writeRx(unsigned char, unsigned char)>
  103552:	2228      	movs	r2, #40	; 0x28
  103554:	2105      	movs	r1, #5
  103556:	4828      	ldr	r0, [pc, #160]	; (1035f8 <main+0x5c8>)
  103558:	f002 f8a1 	bl	10569e <NRF24L01P::writeRx(unsigned char, unsigned char)>
  10355c:	2270      	movs	r2, #112	; 0x70
  10355e:	2107      	movs	r1, #7
  103560:	4825      	ldr	r0, [pc, #148]	; (1035f8 <main+0x5c8>)
  103562:	f002 f89c 	bl	10569e <NRF24L01P::writeRx(unsigned char, unsigned char)>
  103566:	2400      	movs	r4, #0
  103568:	2346      	movs	r3, #70	; 0x46
  10356a:	aa1a      	add	r2, sp, #104	; 0x68
  10356c:	2105      	movs	r1, #5
  10356e:	4822      	ldr	r0, [pc, #136]	; (1035f8 <main+0x5c8>)
  103570:	f88d 3068 	strb.w	r3, [sp, #104]	; 0x68
  103574:	f88d 4069 	strb.w	r4, [sp, #105]	; 0x69
  103578:	f002 f95e 	bl	105838 <NRF24L01P::WritePayload(unsigned char, unsigned char*)>
  10357c:	491f      	ldr	r1, [pc, #124]	; (1035fc <main+0x5cc>)
  10357e:	480d      	ldr	r0, [pc, #52]	; (1035b4 <main+0x584>)
  103580:	f00a fa60 	bl	10da44 <mbed::Stream::printf(char const*, ...)>
  103584:	21e2      	movs	r1, #226	; 0xe2
  103586:	481c      	ldr	r0, [pc, #112]	; (1035f8 <main+0x5c8>)
  103588:	f002 f82c 	bl	1055e4 <NRF24L01P::WriteCommand(unsigned char)>
  10358c:	21e1      	movs	r1, #225	; 0xe1
  10358e:	481a      	ldr	r0, [pc, #104]	; (1035f8 <main+0x5c8>)
  103590:	f002 f828 	bl	1055e4 <NRF24L01P::WriteCommand(unsigned char)>
  103594:	9b84      	ldr	r3, [sp, #528]	; 0x210
  103596:	9411      	str	r4, [sp, #68]	; 0x44
  103598:	9312      	str	r3, [sp, #72]	; 0x48
  10359a:	2401      	movs	r4, #1
  10359c:	e628      	b.n	1031f0 <main+0x1c0>
  10359e:	bf00      	nop
  1035a0:	eb851eb8 	.word	0xeb851eb8
  1035a4:	4008b851 	.word	0x4008b851
  1035a8:	66666666 	.word	0x66666666
  1035ac:	40633666 	.word	0x40633666
  1035b0:	0011634f 	.word	0x0011634f
  1035b4:	3fff8184 	.word	0x3fff8184
  1035b8:	00116316 	.word	0x00116316
  1035bc:	00116372 	.word	0x00116372
  1035c0:	406b8000 	.word	0x406b8000
  1035c4:	00116392 	.word	0x00116392
  1035c8:	001163b8 	.word	0x001163b8
  1035cc:	001163d8 	.word	0x001163d8
  1035d0:	001163fe 	.word	0x001163fe
  1035d4:	0011641e 	.word	0x0011641e
  1035d8:	00116444 	.word	0x00116444
  1035dc:	00116467 	.word	0x00116467
  1035e0:	00116480 	.word	0x00116480
  1035e4:	0011649b 	.word	0x0011649b
  1035e8:	001164ba 	.word	0x001164ba
  1035ec:	001164c3 	.word	0x001164c3
  1035f0:	3fff40c4 	.word	0x3fff40c4
  1035f4:	001164d7 	.word	0x001164d7
  1035f8:	3fff8100 	.word	0x3fff8100
  1035fc:	001164ee 	.word	0x001164ee
  103600:	001164f6 	.word	0x001164f6
  103604:	4640      	mov	r0, r8
  103606:	f00b ff0f 	bl	10f428 <__aeabi_f2iz>
  10360a:	9b15      	ldr	r3, [sp, #84]	; 0x54
  10360c:	4680      	mov	r8, r0
  10360e:	4dab      	ldr	r5, [pc, #684]	; (1038bc <main+0x88c>)
  103610:	2b00      	cmp	r3, #0
  103612:	f000 8759 	beq.w	1044c8 <main+0x1498>
  103616:	9b14      	ldr	r3, [sp, #80]	; 0x50
  103618:	2b00      	cmp	r3, #0
  10361a:	f000 83c1 	beq.w	103da0 <main+0xd70>
  10361e:	f1ba 0f00 	cmp.w	r10, #0
  103622:	f000 81a8 	beq.w	103976 <main+0x946>
  103626:	f1b9 0f00 	cmp.w	r9, #0
  10362a:	f000 810a 	beq.w	103842 <main+0x812>
  10362e:	2e00      	cmp	r6, #0
  103630:	f000 8093 	beq.w	10375a <main+0x72a>
  103634:	2c00      	cmp	r4, #0
  103636:	d057      	beq.n	1036e8 <main+0x6b8>
  103638:	2400      	movs	r4, #0
  10363a:	2100      	movs	r1, #0
  10363c:	48a0      	ldr	r0, [pc, #640]	; (1038c0 <main+0x890>)
  10363e:	f007 fcb1 	bl	10afa4 <gpio_write>
  103642:	9810      	ldr	r0, [sp, #64]	; 0x40
  103644:	702c      	strb	r4, [r5, #0]
  103646:	f00b f953 	bl	10e8f0 <__aeabi_f2d>
  10364a:	e9cd 010c 	strd	r0, r1, [sp, #48]	; 0x30
  10364e:	980f      	ldr	r0, [sp, #60]	; 0x3c
  103650:	f00b f94e 	bl	10e8f0 <__aeabi_f2d>
  103654:	9b12      	ldr	r3, [sp, #72]	; 0x48
  103656:	e9cd 010a 	strd	r0, r1, [sp, #40]	; 0x28
  10365a:	9308      	str	r3, [sp, #32]
  10365c:	9b11      	ldr	r3, [sp, #68]	; 0x44
  10365e:	f8cd b018 	str.w	r11, [sp, #24]
  103662:	9307      	str	r3, [sp, #28]
  103664:	4b97      	ldr	r3, [pc, #604]	; (1038c4 <main+0x894>)
  103666:	980e      	ldr	r0, [sp, #56]	; 0x38
  103668:	681b      	ldr	r3, [r3, #0]
  10366a:	f8cd 8010 	str.w	r8, [sp, #16]
  10366e:	9305      	str	r3, [sp, #20]
  103670:	f00b f93e 	bl	10e8f0 <__aeabi_f2d>
  103674:	e9cd 0102 	strd	r0, r1, [sp, #8]
  103678:	9813      	ldr	r0, [sp, #76]	; 0x4c
  10367a:	f00b f939 	bl	10e8f0 <__aeabi_f2d>
  10367e:	4a92      	ldr	r2, [pc, #584]	; (1038c8 <main+0x898>)
  103680:	e9cd 0100 	strd	r0, r1, [sp]
  103684:	4991      	ldr	r1, [pc, #580]	; (1038cc <main+0x89c>)
  103686:	4628      	mov	r0, r5
  103688:	f00d ffe8 	bl	11165c <siprintf>
  10368c:	2034      	movs	r0, #52	; 0x34
  10368e:	941f      	str	r4, [sp, #124]	; 0x7c
  103690:	f00a f846 	bl	10d720 <operator new(unsigned int)>
  103694:	f10d 0970 	add.w	r9, sp, #112	; 0x70
  103698:	498d      	ldr	r1, [pc, #564]	; (1038d0 <main+0x8a0>)
  10369a:	462b      	mov	r3, r5
  10369c:	463a      	mov	r2, r7
  10369e:	9401      	str	r4, [sp, #4]
  1036a0:	f8cd 9000 	str.w	r9, [sp]
  1036a4:	4680      	mov	r8, r0
  1036a6:	f7ff fa9f 	bl	102be8 <HttpRequest::HttpRequest(NetworkInterface*, http_method, char const*, mbed::Callback<void (char const*, unsigned int)>, unsigned int)>
  1036aa:	4648      	mov	r0, r9
  1036ac:	f7ff f814 	bl	1026d8 <mbed::Callback<void (char const*, unsigned int)>::~Callback()>
  1036b0:	4988      	ldr	r1, [pc, #544]	; (1038d4 <main+0x8a4>)
  1036b2:	4889      	ldr	r0, [pc, #548]	; (1038d8 <main+0x8a8>)
  1036b4:	f00a f9c6 	bl	10da44 <mbed::Stream::printf(char const*, ...)>
  1036b8:	4988      	ldr	r1, [pc, #544]	; (1038dc <main+0x8ac>)
  1036ba:	4887      	ldr	r0, [pc, #540]	; (1038d8 <main+0x8a8>)
  1036bc:	f00a f9c2 	bl	10da44 <mbed::Stream::printf(char const*, ...)>
  1036c0:	4987      	ldr	r1, [pc, #540]	; (1038e0 <main+0x8b0>)
  1036c2:	4885      	ldr	r0, [pc, #532]	; (1038d8 <main+0x8a8>)
  1036c4:	f00a f9be 	bl	10da44 <mbed::Stream::printf(char const*, ...)>
  1036c8:	4622      	mov	r2, r4
  1036ca:	4621      	mov	r1, r4
  1036cc:	4640      	mov	r0, r8
  1036ce:	f7ff fb91 	bl	102df4 <HttpRequest::send(void const*, unsigned int)>
  1036d2:	4984      	ldr	r1, [pc, #528]	; (1038e4 <main+0x8b4>)
  1036d4:	4880      	ldr	r0, [pc, #512]	; (1038d8 <main+0x8a8>)
  1036d6:	f00a f9b5 	bl	10da44 <mbed::Stream::printf(char const*, ...)>
  1036da:	f1b8 0f00 	cmp.w	r8, #0
  1036de:	f041 85f1 	bne.w	1052c4 <main+0x2294>
  1036e2:	2400      	movs	r4, #0
  1036e4:	f001 bdf6 	b.w	1052d4 <main+0x22a4>
  1036e8:	4621      	mov	r1, r4
  1036ea:	4875      	ldr	r0, [pc, #468]	; (1038c0 <main+0x890>)
  1036ec:	f007 fc5a 	bl	10afa4 <gpio_write>
  1036f0:	9810      	ldr	r0, [sp, #64]	; 0x40
  1036f2:	702c      	strb	r4, [r5, #0]
  1036f4:	f00b f8fc 	bl	10e8f0 <__aeabi_f2d>
  1036f8:	e9cd 010a 	strd	r0, r1, [sp, #40]	; 0x28
  1036fc:	980f      	ldr	r0, [sp, #60]	; 0x3c
  1036fe:	f00b f8f7 	bl	10e8f0 <__aeabi_f2d>
  103702:	e9cd 0108 	strd	r0, r1, [sp, #32]
  103706:	4b6f      	ldr	r3, [pc, #444]	; (1038c4 <main+0x894>)
  103708:	f8cd b018 	str.w	r11, [sp, #24]
  10370c:	681b      	ldr	r3, [r3, #0]
  10370e:	980e      	ldr	r0, [sp, #56]	; 0x38
  103710:	9305      	str	r3, [sp, #20]
  103712:	f8cd 8010 	str.w	r8, [sp, #16]
  103716:	f00b f8eb 	bl	10e8f0 <__aeabi_f2d>
  10371a:	e9cd 0102 	strd	r0, r1, [sp, #8]
  10371e:	9813      	ldr	r0, [sp, #76]	; 0x4c
  103720:	f00b f8e6 	bl	10e8f0 <__aeabi_f2d>
  103724:	4a68      	ldr	r2, [pc, #416]	; (1038c8 <main+0x898>)
  103726:	e9cd 0100 	strd	r0, r1, [sp]
  10372a:	496f      	ldr	r1, [pc, #444]	; (1038e8 <main+0x8b8>)
  10372c:	4628      	mov	r0, r5
  10372e:	f00d ff95 	bl	11165c <siprintf>
  103732:	2034      	movs	r0, #52	; 0x34
  103734:	941f      	str	r4, [sp, #124]	; 0x7c
  103736:	f009 fff3 	bl	10d720 <operator new(unsigned int)>
  10373a:	f10d 0970 	add.w	r9, sp, #112	; 0x70
  10373e:	4964      	ldr	r1, [pc, #400]	; (1038d0 <main+0x8a0>)
  103740:	462b      	mov	r3, r5
  103742:	463a      	mov	r2, r7
  103744:	9401      	str	r4, [sp, #4]
  103746:	f8cd 9000 	str.w	r9, [sp]
  10374a:	4680      	mov	r8, r0
  10374c:	f7ff fa4c 	bl	102be8 <HttpRequest::HttpRequest(NetworkInterface*, http_method, char const*, mbed::Callback<void (char const*, unsigned int)>, unsigned int)>
  103750:	4648      	mov	r0, r9
  103752:	f7fe ffc1 	bl	1026d8 <mbed::Callback<void (char const*, unsigned int)>::~Callback()>
  103756:	4965      	ldr	r1, [pc, #404]	; (1038ec <main+0x8bc>)
  103758:	e22e      	b.n	103bb8 <main+0xb88>
  10375a:	2c00      	cmp	r4, #0
  10375c:	d03a      	beq.n	1037d4 <main+0x7a4>
  10375e:	4631      	mov	r1, r6
  103760:	4857      	ldr	r0, [pc, #348]	; (1038c0 <main+0x890>)
  103762:	f007 fc1f 	bl	10afa4 <gpio_write>
  103766:	9810      	ldr	r0, [sp, #64]	; 0x40
  103768:	702e      	strb	r6, [r5, #0]
  10376a:	f00b f8c1 	bl	10e8f0 <__aeabi_f2d>
  10376e:	e9cd 010a 	strd	r0, r1, [sp, #40]	; 0x28
  103772:	980f      	ldr	r0, [sp, #60]	; 0x3c
  103774:	f00b f8bc 	bl	10e8f0 <__aeabi_f2d>
  103778:	9b12      	ldr	r3, [sp, #72]	; 0x48
  10377a:	e9cd 0108 	strd	r0, r1, [sp, #32]
  10377e:	9307      	str	r3, [sp, #28]
  103780:	9b11      	ldr	r3, [sp, #68]	; 0x44
  103782:	980e      	ldr	r0, [sp, #56]	; 0x38
  103784:	9306      	str	r3, [sp, #24]
  103786:	4b4f      	ldr	r3, [pc, #316]	; (1038c4 <main+0x894>)
  103788:	681b      	ldr	r3, [r3, #0]
  10378a:	f8cd 8010 	str.w	r8, [sp, #16]
  10378e:	9305      	str	r3, [sp, #20]
  103790:	f00b f8ae 	bl	10e8f0 <__aeabi_f2d>
  103794:	e9cd 0102 	strd	r0, r1, [sp, #8]
  103798:	9813      	ldr	r0, [sp, #76]	; 0x4c
  10379a:	f00b f8a9 	bl	10e8f0 <__aeabi_f2d>
  10379e:	4a4a      	ldr	r2, [pc, #296]	; (1038c8 <main+0x898>)
  1037a0:	e9cd 0100 	strd	r0, r1, [sp]
  1037a4:	4952      	ldr	r1, [pc, #328]	; (1038f0 <main+0x8c0>)
  1037a6:	4628      	mov	r0, r5
  1037a8:	f00d ff58 	bl	11165c <siprintf>
  1037ac:	2034      	movs	r0, #52	; 0x34
  1037ae:	961f      	str	r6, [sp, #124]	; 0x7c
  1037b0:	f009 ffb6 	bl	10d720 <operator new(unsigned int)>
  1037b4:	f10d 0870 	add.w	r8, sp, #112	; 0x70
  1037b8:	4945      	ldr	r1, [pc, #276]	; (1038d0 <main+0x8a0>)
  1037ba:	462b      	mov	r3, r5
  1037bc:	463a      	mov	r2, r7
  1037be:	9601      	str	r6, [sp, #4]
  1037c0:	f8cd 8000 	str.w	r8, [sp]
  1037c4:	4604      	mov	r4, r0
  1037c6:	f7ff fa0f 	bl	102be8 <HttpRequest::HttpRequest(NetworkInterface*, http_method, char const*, mbed::Callback<void (char const*, unsigned int)>, unsigned int)>
  1037ca:	4640      	mov	r0, r8
  1037cc:	f7fe ff84 	bl	1026d8 <mbed::Callback<void (char const*, unsigned int)>::~Callback()>
  1037d0:	4948      	ldr	r1, [pc, #288]	; (1038f4 <main+0x8c4>)
  1037d2:	e2b0      	b.n	103d36 <main+0xd06>
  1037d4:	4621      	mov	r1, r4
  1037d6:	483a      	ldr	r0, [pc, #232]	; (1038c0 <main+0x890>)
  1037d8:	f007 fbe4 	bl	10afa4 <gpio_write>
  1037dc:	9810      	ldr	r0, [sp, #64]	; 0x40
  1037de:	702c      	strb	r4, [r5, #0]
  1037e0:	f00b f886 	bl	10e8f0 <__aeabi_f2d>
  1037e4:	e9cd 0108 	strd	r0, r1, [sp, #32]
  1037e8:	980f      	ldr	r0, [sp, #60]	; 0x3c
  1037ea:	f00b f881 	bl	10e8f0 <__aeabi_f2d>
  1037ee:	e9cd 0106 	strd	r0, r1, [sp, #24]
  1037f2:	4b34      	ldr	r3, [pc, #208]	; (1038c4 <main+0x894>)
  1037f4:	980e      	ldr	r0, [sp, #56]	; 0x38
  1037f6:	681b      	ldr	r3, [r3, #0]
  1037f8:	f8cd 8010 	str.w	r8, [sp, #16]
  1037fc:	9305      	str	r3, [sp, #20]
  1037fe:	f00b f877 	bl	10e8f0 <__aeabi_f2d>
  103802:	e9cd 0102 	strd	r0, r1, [sp, #8]
  103806:	9813      	ldr	r0, [sp, #76]	; 0x4c
  103808:	f00b f872 	bl	10e8f0 <__aeabi_f2d>
  10380c:	4a2e      	ldr	r2, [pc, #184]	; (1038c8 <main+0x898>)
  10380e:	e9cd 0100 	strd	r0, r1, [sp]
  103812:	4939      	ldr	r1, [pc, #228]	; (1038f8 <main+0x8c8>)
  103814:	4628      	mov	r0, r5
  103816:	f00d ff21 	bl	11165c <siprintf>
  10381a:	2034      	movs	r0, #52	; 0x34
  10381c:	941f      	str	r4, [sp, #124]	; 0x7c
  10381e:	f009 ff7f 	bl	10d720 <operator new(unsigned int)>
  103822:	f10d 0970 	add.w	r9, sp, #112	; 0x70
  103826:	492a      	ldr	r1, [pc, #168]	; (1038d0 <main+0x8a0>)
  103828:	462b      	mov	r3, r5
  10382a:	463a      	mov	r2, r7
  10382c:	9401      	str	r4, [sp, #4]
  10382e:	f8cd 9000 	str.w	r9, [sp]
  103832:	4680      	mov	r8, r0
  103834:	f7ff f9d8 	bl	102be8 <HttpRequest::HttpRequest(NetworkInterface*, http_method, char const*, mbed::Callback<void (char const*, unsigned int)>, unsigned int)>
  103838:	4648      	mov	r0, r9
  10383a:	f7fe ff4d 	bl	1026d8 <mbed::Callback<void (char const*, unsigned int)>::~Callback()>
  10383e:	492f      	ldr	r1, [pc, #188]	; (1038fc <main+0x8cc>)
  103840:	e1ba      	b.n	103bb8 <main+0xb88>
  103842:	2c00      	cmp	r4, #0
  103844:	d060      	beq.n	103908 <main+0x8d8>
  103846:	4649      	mov	r1, r9
  103848:	481d      	ldr	r0, [pc, #116]	; (1038c0 <main+0x890>)
  10384a:	f007 fbab 	bl	10afa4 <gpio_write>
  10384e:	9810      	ldr	r0, [sp, #64]	; 0x40
  103850:	f885 9000 	strb.w	r9, [r5]
  103854:	f00b f84c 	bl	10e8f0 <__aeabi_f2d>
  103858:	e9cd 0108 	strd	r0, r1, [sp, #32]
  10385c:	980f      	ldr	r0, [sp, #60]	; 0x3c
  10385e:	f00b f847 	bl	10e8f0 <__aeabi_f2d>
  103862:	9b12      	ldr	r3, [sp, #72]	; 0x48
  103864:	e9cd 0106 	strd	r0, r1, [sp, #24]
  103868:	9305      	str	r3, [sp, #20]
  10386a:	4b16      	ldr	r3, [pc, #88]	; (1038c4 <main+0x894>)
  10386c:	9813      	ldr	r0, [sp, #76]	; 0x4c
  10386e:	681b      	ldr	r3, [r3, #0]
  103870:	f8cd 800c 	str.w	r8, [sp, #12]
  103874:	9304      	str	r3, [sp, #16]
  103876:	9b11      	ldr	r3, [sp, #68]	; 0x44
  103878:	f10d 0870 	add.w	r8, sp, #112	; 0x70
  10387c:	9302      	str	r3, [sp, #8]
  10387e:	f00b f837 	bl	10e8f0 <__aeabi_f2d>
  103882:	4a11      	ldr	r2, [pc, #68]	; (1038c8 <main+0x898>)
  103884:	e9cd 0100 	strd	r0, r1, [sp]
  103888:	491d      	ldr	r1, [pc, #116]	; (103900 <main+0x8d0>)
  10388a:	4628      	mov	r0, r5
  10388c:	f00d fee6 	bl	11165c <siprintf>
  103890:	2034      	movs	r0, #52	; 0x34
  103892:	f8cd 907c 	str.w	r9, [sp, #124]	; 0x7c
  103896:	f009 ff43 	bl	10d720 <operator new(unsigned int)>
  10389a:	462b      	mov	r3, r5
  10389c:	463a      	mov	r2, r7
  10389e:	490c      	ldr	r1, [pc, #48]	; (1038d0 <main+0x8a0>)
  1038a0:	e88d 0300 	stmia.w	sp, {r8, r9}
  1038a4:	4604      	mov	r4, r0
  1038a6:	f7ff f99f 	bl	102be8 <HttpRequest::HttpRequest(NetworkInterface*, http_method, char const*, mbed::Callback<void (char const*, unsigned int)>, unsigned int)>
  1038aa:	4640      	mov	r0, r8
  1038ac:	f7fe ff14 	bl	1026d8 <mbed::Callback<void (char const*, unsigned int)>::~Callback()>
  1038b0:	4914      	ldr	r1, [pc, #80]	; (103904 <main+0x8d4>)
  1038b2:	4809      	ldr	r0, [pc, #36]	; (1038d8 <main+0x8a8>)
  1038b4:	f00a f8c6 	bl	10da44 <mbed::Stream::printf(char const*, ...)>
  1038b8:	4908      	ldr	r1, [pc, #32]	; (1038dc <main+0x8ac>)
  1038ba:	e3bb      	b.n	104034 <main+0x1004>
  1038bc:	3fff4781 	.word	0x3fff4781
  1038c0:	3fff8144 	.word	0x3fff8144
  1038c4:	3fff8260 	.word	0x3fff8260
  1038c8:	0011650b 	.word	0x0011650b
  1038cc:	0011651c 	.word	0x0011651c
  1038d0:	3fff4894 	.word	0x3fff4894
  1038d4:	001165a4 	.word	0x001165a4
  1038d8:	3fff8184 	.word	0x3fff8184
  1038dc:	001165ba 	.word	0x001165ba
  1038e0:	001165d4 	.word	0x001165d4
  1038e4:	001165ee 	.word	0x001165ee
  1038e8:	001165f6 	.word	0x001165f6
  1038ec:	0011666a 	.word	0x0011666a
  1038f0:	0011668c 	.word	0x0011668c
  1038f4:	0011670a 	.word	0x0011670a
  1038f8:	00116730 	.word	0x00116730
  1038fc:	00116799 	.word	0x00116799
  103900:	001167cb 	.word	0x001167cb
  103904:	0011683f 	.word	0x0011683f
  103908:	2e00      	cmp	r6, #0
  10390a:	f000 817f 	beq.w	103c0c <main+0xbdc>
  10390e:	4621      	mov	r1, r4
  103910:	48ac      	ldr	r0, [pc, #688]	; (103bc4 <main+0xb94>)
  103912:	f007 fb47 	bl	10afa4 <gpio_write>
  103916:	9810      	ldr	r0, [sp, #64]	; 0x40
  103918:	702c      	strb	r4, [r5, #0]
  10391a:	f00a ffe9 	bl	10e8f0 <__aeabi_f2d>
  10391e:	e9cd 0108 	strd	r0, r1, [sp, #32]
  103922:	980f      	ldr	r0, [sp, #60]	; 0x3c
  103924:	f00a ffe4 	bl	10e8f0 <__aeabi_f2d>
  103928:	e9cd 0106 	strd	r0, r1, [sp, #24]
  10392c:	4ba6      	ldr	r3, [pc, #664]	; (103bc8 <main+0xb98>)
  10392e:	f8cd b010 	str.w	r11, [sp, #16]
  103932:	681b      	ldr	r3, [r3, #0]
  103934:	9813      	ldr	r0, [sp, #76]	; 0x4c
  103936:	9303      	str	r3, [sp, #12]
  103938:	f8cd 8008 	str.w	r8, [sp, #8]
  10393c:	f00a ffd8 	bl	10e8f0 <__aeabi_f2d>
  103940:	4aa2      	ldr	r2, [pc, #648]	; (103bcc <main+0xb9c>)
  103942:	e9cd 0100 	strd	r0, r1, [sp]
  103946:	49a2      	ldr	r1, [pc, #648]	; (103bd0 <main+0xba0>)
  103948:	4628      	mov	r0, r5
  10394a:	f00d fe87 	bl	11165c <siprintf>
  10394e:	2034      	movs	r0, #52	; 0x34
  103950:	941f      	str	r4, [sp, #124]	; 0x7c
  103952:	f009 fee5 	bl	10d720 <operator new(unsigned int)>
  103956:	f10d 0970 	add.w	r9, sp, #112	; 0x70
  10395a:	499e      	ldr	r1, [pc, #632]	; (103bd4 <main+0xba4>)
  10395c:	462b      	mov	r3, r5
  10395e:	463a      	mov	r2, r7
  103960:	9401      	str	r4, [sp, #4]
  103962:	f8cd 9000 	str.w	r9, [sp]
  103966:	4680      	mov	r8, r0
  103968:	f7ff f93e 	bl	102be8 <HttpRequest::HttpRequest(NetworkInterface*, http_method, char const*, mbed::Callback<void (char const*, unsigned int)>, unsigned int)>
  10396c:	4648      	mov	r0, r9
  10396e:	f7fe feb3 	bl	1026d8 <mbed::Callback<void (char const*, unsigned int)>::~Callback()>
  103972:	4999      	ldr	r1, [pc, #612]	; (103bd8 <main+0xba8>)
  103974:	e69d      	b.n	1036b2 <main+0x682>
  103976:	f1b9 0f00 	cmp.w	r9, #0
  10397a:	f000 80ad 	beq.w	103ad8 <main+0xaa8>
  10397e:	2e00      	cmp	r6, #0
  103980:	d072      	beq.n	103a68 <main+0xa38>
  103982:	2c00      	cmp	r4, #0
  103984:	d03c      	beq.n	103a00 <main+0x9d0>
  103986:	4651      	mov	r1, r10
  103988:	488e      	ldr	r0, [pc, #568]	; (103bc4 <main+0xb94>)
  10398a:	f007 fb0b 	bl	10afa4 <gpio_write>
  10398e:	9810      	ldr	r0, [sp, #64]	; 0x40
  103990:	f885 a000 	strb.w	r10, [r5]
  103994:	f00a ffac 	bl	10e8f0 <__aeabi_f2d>
  103998:	e9cd 010a 	strd	r0, r1, [sp, #40]	; 0x28
  10399c:	980f      	ldr	r0, [sp, #60]	; 0x3c
  10399e:	f00a ffa7 	bl	10e8f0 <__aeabi_f2d>
  1039a2:	9b12      	ldr	r3, [sp, #72]	; 0x48
  1039a4:	e9cd 0108 	strd	r0, r1, [sp, #32]
  1039a8:	9306      	str	r3, [sp, #24]
  1039aa:	9b11      	ldr	r3, [sp, #68]	; 0x44
  1039ac:	f8cd b010 	str.w	r11, [sp, #16]
  1039b0:	9305      	str	r3, [sp, #20]
  1039b2:	4b85      	ldr	r3, [pc, #532]	; (103bc8 <main+0xb98>)
  1039b4:	980e      	ldr	r0, [sp, #56]	; 0x38
  1039b6:	681b      	ldr	r3, [r3, #0]
  1039b8:	f8cd 8008 	str.w	r8, [sp, #8]
  1039bc:	9303      	str	r3, [sp, #12]
  1039be:	f00a ff97 	bl	10e8f0 <__aeabi_f2d>
  1039c2:	4a82      	ldr	r2, [pc, #520]	; (103bcc <main+0xb9c>)
  1039c4:	e9cd 0100 	strd	r0, r1, [sp]
  1039c8:	4984      	ldr	r1, [pc, #528]	; (103bdc <main+0xbac>)
  1039ca:	4628      	mov	r0, r5
  1039cc:	f00d fe46 	bl	11165c <siprintf>
  1039d0:	2034      	movs	r0, #52	; 0x34
  1039d2:	f8cd a07c 	str.w	r10, [sp, #124]	; 0x7c
  1039d6:	f009 fea3 	bl	10d720 <operator new(unsigned int)>
  1039da:	f10d 0870 	add.w	r8, sp, #112	; 0x70
  1039de:	462b      	mov	r3, r5
  1039e0:	463a      	mov	r2, r7
  1039e2:	497c      	ldr	r1, [pc, #496]	; (103bd4 <main+0xba4>)
  1039e4:	e88d 0500 	stmia.w	sp, {r8, r10}
  1039e8:	4604      	mov	r4, r0
  1039ea:	f7ff f8fd 	bl	102be8 <HttpRequest::HttpRequest(NetworkInterface*, http_method, char const*, mbed::Callback<void (char const*, unsigned int)>, unsigned int)>
  1039ee:	4640      	mov	r0, r8
  1039f0:	f7fe fe72 	bl	1026d8 <mbed::Callback<void (char const*, unsigned int)>::~Callback()>
  1039f4:	497a      	ldr	r1, [pc, #488]	; (103be0 <main+0xbb0>)
  1039f6:	487b      	ldr	r0, [pc, #492]	; (103be4 <main+0xbb4>)
  1039f8:	f00a f824 	bl	10da44 <mbed::Stream::printf(char const*, ...)>
  1039fc:	497a      	ldr	r1, [pc, #488]	; (103be8 <main+0xbb8>)
  1039fe:	e38e      	b.n	10411e <main+0x10ee>
  103a00:	4621      	mov	r1, r4
  103a02:	4870      	ldr	r0, [pc, #448]	; (103bc4 <main+0xb94>)
  103a04:	f007 face 	bl	10afa4 <gpio_write>
  103a08:	9810      	ldr	r0, [sp, #64]	; 0x40
  103a0a:	702c      	strb	r4, [r5, #0]
  103a0c:	f00a ff70 	bl	10e8f0 <__aeabi_f2d>
  103a10:	e9cd 0108 	strd	r0, r1, [sp, #32]
  103a14:	980f      	ldr	r0, [sp, #60]	; 0x3c
  103a16:	f00a ff6b 	bl	10e8f0 <__aeabi_f2d>
  103a1a:	e9cd 0106 	strd	r0, r1, [sp, #24]
  103a1e:	4b6a      	ldr	r3, [pc, #424]	; (103bc8 <main+0xb98>)
  103a20:	f8cd b010 	str.w	r11, [sp, #16]
  103a24:	681b      	ldr	r3, [r3, #0]
  103a26:	980e      	ldr	r0, [sp, #56]	; 0x38
  103a28:	9303      	str	r3, [sp, #12]
  103a2a:	f8cd 8008 	str.w	r8, [sp, #8]
  103a2e:	f00a ff5f 	bl	10e8f0 <__aeabi_f2d>
  103a32:	4a66      	ldr	r2, [pc, #408]	; (103bcc <main+0xb9c>)
  103a34:	e9cd 0100 	strd	r0, r1, [sp]
  103a38:	496c      	ldr	r1, [pc, #432]	; (103bec <main+0xbbc>)
  103a3a:	4628      	mov	r0, r5
  103a3c:	f00d fe0e 	bl	11165c <siprintf>
  103a40:	2034      	movs	r0, #52	; 0x34
  103a42:	941f      	str	r4, [sp, #124]	; 0x7c
  103a44:	f009 fe6c 	bl	10d720 <operator new(unsigned int)>
  103a48:	f10d 0970 	add.w	r9, sp, #112	; 0x70
  103a4c:	4961      	ldr	r1, [pc, #388]	; (103bd4 <main+0xba4>)
  103a4e:	462b      	mov	r3, r5
  103a50:	463a      	mov	r2, r7
  103a52:	9401      	str	r4, [sp, #4]
  103a54:	f8cd 9000 	str.w	r9, [sp]
  103a58:	4680      	mov	r8, r0
  103a5a:	f7ff f8c5 	bl	102be8 <HttpRequest::HttpRequest(NetworkInterface*, http_method, char const*, mbed::Callback<void (char const*, unsigned int)>, unsigned int)>
  103a5e:	4648      	mov	r0, r9
  103a60:	f7fe fe3a 	bl	1026d8 <mbed::Callback<void (char const*, unsigned int)>::~Callback()>
  103a64:	4962      	ldr	r1, [pc, #392]	; (103bf0 <main+0xbc0>)
  103a66:	e0a7      	b.n	103bb8 <main+0xb88>
  103a68:	2c00      	cmp	r4, #0
  103a6a:	d074      	beq.n	103b56 <main+0xb26>
  103a6c:	4631      	mov	r1, r6
  103a6e:	4855      	ldr	r0, [pc, #340]	; (103bc4 <main+0xb94>)
  103a70:	f007 fa98 	bl	10afa4 <gpio_write>
  103a74:	9810      	ldr	r0, [sp, #64]	; 0x40
  103a76:	702e      	strb	r6, [r5, #0]
  103a78:	f00a ff3a 	bl	10e8f0 <__aeabi_f2d>
  103a7c:	e9cd 0108 	strd	r0, r1, [sp, #32]
  103a80:	980f      	ldr	r0, [sp, #60]	; 0x3c
  103a82:	f00a ff35 	bl	10e8f0 <__aeabi_f2d>
  103a86:	9b12      	ldr	r3, [sp, #72]	; 0x48
  103a88:	e9cd 0106 	strd	r0, r1, [sp, #24]
  103a8c:	9305      	str	r3, [sp, #20]
  103a8e:	9b11      	ldr	r3, [sp, #68]	; 0x44
  103a90:	980e      	ldr	r0, [sp, #56]	; 0x38
  103a92:	9304      	str	r3, [sp, #16]
  103a94:	4b4c      	ldr	r3, [pc, #304]	; (103bc8 <main+0xb98>)
  103a96:	f10d 0970 	add.w	r9, sp, #112	; 0x70
  103a9a:	681b      	ldr	r3, [r3, #0]
  103a9c:	f8cd 8008 	str.w	r8, [sp, #8]
  103aa0:	9303      	str	r3, [sp, #12]
  103aa2:	f00a ff25 	bl	10e8f0 <__aeabi_f2d>
  103aa6:	4a49      	ldr	r2, [pc, #292]	; (103bcc <main+0xb9c>)
  103aa8:	e9cd 0100 	strd	r0, r1, [sp]
  103aac:	4951      	ldr	r1, [pc, #324]	; (103bf4 <main+0xbc4>)
  103aae:	4628      	mov	r0, r5
  103ab0:	f00d fdd4 	bl	11165c <siprintf>
  103ab4:	2034      	movs	r0, #52	; 0x34
  103ab6:	961f      	str	r6, [sp, #124]	; 0x7c
  103ab8:	f009 fe32 	bl	10d720 <operator new(unsigned int)>
  103abc:	4945      	ldr	r1, [pc, #276]	; (103bd4 <main+0xba4>)
  103abe:	462b      	mov	r3, r5
  103ac0:	463a      	mov	r2, r7
  103ac2:	9601      	str	r6, [sp, #4]
  103ac4:	f8cd 9000 	str.w	r9, [sp]
  103ac8:	4680      	mov	r8, r0
  103aca:	f7ff f88d 	bl	102be8 <HttpRequest::HttpRequest(NetworkInterface*, http_method, char const*, mbed::Callback<void (char const*, unsigned int)>, unsigned int)>
  103ace:	4648      	mov	r0, r9
  103ad0:	f7fe fe02 	bl	1026d8 <mbed::Callback<void (char const*, unsigned int)>::~Callback()>
  103ad4:	4948      	ldr	r1, [pc, #288]	; (103bf8 <main+0xbc8>)
  103ad6:	e0ca      	b.n	103c6e <main+0xc3e>
  103ad8:	2c00      	cmp	r4, #0
  103ada:	f000 80cd 	beq.w	103c78 <main+0xc48>
  103ade:	2e00      	cmp	r6, #0
  103ae0:	f000 80fa 	beq.w	103cd8 <main+0xca8>
  103ae4:	4649      	mov	r1, r9
  103ae6:	4837      	ldr	r0, [pc, #220]	; (103bc4 <main+0xb94>)
  103ae8:	f007 fa5c 	bl	10afa4 <gpio_write>
  103aec:	9810      	ldr	r0, [sp, #64]	; 0x40
  103aee:	f885 9000 	strb.w	r9, [r5]
  103af2:	f00a fefd 	bl	10e8f0 <__aeabi_f2d>
  103af6:	e9cd 0106 	strd	r0, r1, [sp, #24]
  103afa:	980f      	ldr	r0, [sp, #60]	; 0x3c
  103afc:	f00a fef8 	bl	10e8f0 <__aeabi_f2d>
  103b00:	9b12      	ldr	r3, [sp, #72]	; 0x48
  103b02:	e9cd 0104 	strd	r0, r1, [sp, #16]
  103b06:	9303      	str	r3, [sp, #12]
  103b08:	4b2f      	ldr	r3, [pc, #188]	; (103bc8 <main+0xb98>)
  103b0a:	f8cd b008 	str.w	r11, [sp, #8]
  103b0e:	681b      	ldr	r3, [r3, #0]
  103b10:	4a2e      	ldr	r2, [pc, #184]	; (103bcc <main+0xb9c>)
  103b12:	493a      	ldr	r1, [pc, #232]	; (103bfc <main+0xbcc>)
  103b14:	9301      	str	r3, [sp, #4]
  103b16:	f8cd 8000 	str.w	r8, [sp]
  103b1a:	9b11      	ldr	r3, [sp, #68]	; 0x44
  103b1c:	4628      	mov	r0, r5
  103b1e:	f00d fd9d 	bl	11165c <siprintf>
  103b22:	2034      	movs	r0, #52	; 0x34
  103b24:	f8cd 907c 	str.w	r9, [sp, #124]	; 0x7c
  103b28:	f009 fdfa 	bl	10d720 <operator new(unsigned int)>
  103b2c:	f10d 0a70 	add.w	r10, sp, #112	; 0x70
  103b30:	462b      	mov	r3, r5
  103b32:	463a      	mov	r2, r7
  103b34:	4927      	ldr	r1, [pc, #156]	; (103bd4 <main+0xba4>)
  103b36:	f8cd 9004 	str.w	r9, [sp, #4]
  103b3a:	f8cd a000 	str.w	r10, [sp]
  103b3e:	4680      	mov	r8, r0
  103b40:	f7ff f852 	bl	102be8 <HttpRequest::HttpRequest(NetworkInterface*, http_method, char const*, mbed::Callback<void (char const*, unsigned int)>, unsigned int)>
  103b44:	4650      	mov	r0, r10
  103b46:	f7fe fdc7 	bl	1026d8 <mbed::Callback<void (char const*, unsigned int)>::~Callback()>
  103b4a:	492d      	ldr	r1, [pc, #180]	; (103c00 <main+0xbd0>)
  103b4c:	4825      	ldr	r0, [pc, #148]	; (103be4 <main+0xbb4>)
  103b4e:	f009 ff79 	bl	10da44 <mbed::Stream::printf(char const*, ...)>
  103b52:	4925      	ldr	r1, [pc, #148]	; (103be8 <main+0xbb8>)
  103b54:	e3a4      	b.n	1042a0 <main+0x1270>
  103b56:	4621      	mov	r1, r4
  103b58:	481a      	ldr	r0, [pc, #104]	; (103bc4 <main+0xb94>)
  103b5a:	f007 fa23 	bl	10afa4 <gpio_write>
  103b5e:	9810      	ldr	r0, [sp, #64]	; 0x40
  103b60:	702c      	strb	r4, [r5, #0]
  103b62:	f00a fec5 	bl	10e8f0 <__aeabi_f2d>
  103b66:	e9cd 0106 	strd	r0, r1, [sp, #24]
  103b6a:	980f      	ldr	r0, [sp, #60]	; 0x3c
  103b6c:	f00a fec0 	bl	10e8f0 <__aeabi_f2d>
  103b70:	e9cd 0104 	strd	r0, r1, [sp, #16]
  103b74:	4b14      	ldr	r3, [pc, #80]	; (103bc8 <main+0xb98>)
  103b76:	980e      	ldr	r0, [sp, #56]	; 0x38
  103b78:	681b      	ldr	r3, [r3, #0]
  103b7a:	f8cd 8008 	str.w	r8, [sp, #8]
  103b7e:	9303      	str	r3, [sp, #12]
  103b80:	f00a feb6 	bl	10e8f0 <__aeabi_f2d>
  103b84:	4a11      	ldr	r2, [pc, #68]	; (103bcc <main+0xb9c>)
  103b86:	e9cd 0100 	strd	r0, r1, [sp]
  103b8a:	491e      	ldr	r1, [pc, #120]	; (103c04 <main+0xbd4>)
  103b8c:	4628      	mov	r0, r5
  103b8e:	f00d fd65 	bl	11165c <siprintf>
  103b92:	2034      	movs	r0, #52	; 0x34
  103b94:	941f      	str	r4, [sp, #124]	; 0x7c
  103b96:	f009 fdc3 	bl	10d720 <operator new(unsigned int)>
  103b9a:	f10d 0970 	add.w	r9, sp, #112	; 0x70
  103b9e:	490d      	ldr	r1, [pc, #52]	; (103bd4 <main+0xba4>)
  103ba0:	462b      	mov	r3, r5
  103ba2:	463a      	mov	r2, r7
  103ba4:	9401      	str	r4, [sp, #4]
  103ba6:	f8cd 9000 	str.w	r9, [sp]
  103baa:	4680      	mov	r8, r0
  103bac:	f7ff f81c 	bl	102be8 <HttpRequest::HttpRequest(NetworkInterface*, http_method, char const*, mbed::Callback<void (char const*, unsigned int)>, unsigned int)>
  103bb0:	4648      	mov	r0, r9
  103bb2:	f7fe fd91 	bl	1026d8 <mbed::Callback<void (char const*, unsigned int)>::~Callback()>
  103bb6:	4914      	ldr	r1, [pc, #80]	; (103c08 <main+0xbd8>)
  103bb8:	480a      	ldr	r0, [pc, #40]	; (103be4 <main+0xbb4>)
  103bba:	f009 ff43 	bl	10da44 <mbed::Stream::printf(char const*, ...)>
  103bbe:	490a      	ldr	r1, [pc, #40]	; (103be8 <main+0xbb8>)
  103bc0:	e1ff      	b.n	103fc2 <main+0xf92>
  103bc2:	bf00      	nop
  103bc4:	3fff8144 	.word	0x3fff8144
  103bc8:	3fff8260 	.word	0x3fff8260
  103bcc:	0011650b 	.word	0x0011650b
  103bd0:	00116871 	.word	0x00116871
  103bd4:	3fff4894 	.word	0x3fff4894
  103bd8:	001168db 	.word	0x001168db
  103bdc:	00116909 	.word	0x00116909
  103be0:	00116987 	.word	0x00116987
  103be4:	3fff8184 	.word	0x3fff8184
  103be8:	001165ba 	.word	0x001165ba
  103bec:	001169a6 	.word	0x001169a6
  103bf0:	00116a10 	.word	0x00116a10
  103bf4:	00116a3b 	.word	0x00116a3b
  103bf8:	00116aaf 	.word	0x00116aaf
  103bfc:	00116add 	.word	0x00116add
  103c00:	00116b51 	.word	0x00116b51
  103c04:	00116b7c 	.word	0x00116b7c
  103c08:	00116bdc 	.word	0x00116bdc
  103c0c:	4631      	mov	r1, r6
  103c0e:	48a5      	ldr	r0, [pc, #660]	; (103ea4 <main+0xe74>)
  103c10:	f007 f9c8 	bl	10afa4 <gpio_write>
  103c14:	9810      	ldr	r0, [sp, #64]	; 0x40
  103c16:	702e      	strb	r6, [r5, #0]
  103c18:	f00a fe6a 	bl	10e8f0 <__aeabi_f2d>
  103c1c:	e9cd 0106 	strd	r0, r1, [sp, #24]
  103c20:	980f      	ldr	r0, [sp, #60]	; 0x3c
  103c22:	f00a fe65 	bl	10e8f0 <__aeabi_f2d>
  103c26:	e9cd 0104 	strd	r0, r1, [sp, #16]
  103c2a:	4b9f      	ldr	r3, [pc, #636]	; (103ea8 <main+0xe78>)
  103c2c:	9813      	ldr	r0, [sp, #76]	; 0x4c
  103c2e:	681b      	ldr	r3, [r3, #0]
  103c30:	f8cd 8008 	str.w	r8, [sp, #8]
  103c34:	9303      	str	r3, [sp, #12]
  103c36:	f00a fe5b 	bl	10e8f0 <__aeabi_f2d>
  103c3a:	4a9c      	ldr	r2, [pc, #624]	; (103eac <main+0xe7c>)
  103c3c:	e9cd 0100 	strd	r0, r1, [sp]
  103c40:	499b      	ldr	r1, [pc, #620]	; (103eb0 <main+0xe80>)
  103c42:	4628      	mov	r0, r5
  103c44:	f00d fd0a 	bl	11165c <siprintf>
  103c48:	2034      	movs	r0, #52	; 0x34
  103c4a:	961f      	str	r6, [sp, #124]	; 0x7c
  103c4c:	f009 fd68 	bl	10d720 <operator new(unsigned int)>
  103c50:	f10d 0970 	add.w	r9, sp, #112	; 0x70
  103c54:	4997      	ldr	r1, [pc, #604]	; (103eb4 <main+0xe84>)
  103c56:	462b      	mov	r3, r5
  103c58:	463a      	mov	r2, r7
  103c5a:	9601      	str	r6, [sp, #4]
  103c5c:	f8cd 9000 	str.w	r9, [sp]
  103c60:	4680      	mov	r8, r0
  103c62:	f7fe ffc1 	bl	102be8 <HttpRequest::HttpRequest(NetworkInterface*, http_method, char const*, mbed::Callback<void (char const*, unsigned int)>, unsigned int)>
  103c66:	4648      	mov	r0, r9
  103c68:	f7fe fd36 	bl	1026d8 <mbed::Callback<void (char const*, unsigned int)>::~Callback()>
  103c6c:	4992      	ldr	r1, [pc, #584]	; (103eb8 <main+0xe88>)
  103c6e:	4893      	ldr	r0, [pc, #588]	; (103ebc <main+0xe8c>)
  103c70:	f009 fee8 	bl	10da44 <mbed::Stream::printf(char const*, ...)>
  103c74:	4992      	ldr	r1, [pc, #584]	; (103ec0 <main+0xe90>)
  103c76:	e372      	b.n	10435e <main+0x132e>
  103c78:	2e00      	cmp	r6, #0
  103c7a:	d061      	beq.n	103d40 <main+0xd10>
  103c7c:	4621      	mov	r1, r4
  103c7e:	4889      	ldr	r0, [pc, #548]	; (103ea4 <main+0xe74>)
  103c80:	f007 f990 	bl	10afa4 <gpio_write>
  103c84:	9810      	ldr	r0, [sp, #64]	; 0x40
  103c86:	702c      	strb	r4, [r5, #0]
  103c88:	f00a fe32 	bl	10e8f0 <__aeabi_f2d>
  103c8c:	e9cd 0104 	strd	r0, r1, [sp, #16]
  103c90:	980f      	ldr	r0, [sp, #60]	; 0x3c
  103c92:	f00a fe2d 	bl	10e8f0 <__aeabi_f2d>
  103c96:	e9cd 0102 	strd	r0, r1, [sp, #8]
  103c9a:	4b83      	ldr	r3, [pc, #524]	; (103ea8 <main+0xe78>)
  103c9c:	4a83      	ldr	r2, [pc, #524]	; (103eac <main+0xe7c>)
  103c9e:	681b      	ldr	r3, [r3, #0]
  103ca0:	4988      	ldr	r1, [pc, #544]	; (103ec4 <main+0xe94>)
  103ca2:	9301      	str	r3, [sp, #4]
  103ca4:	f8cd 8000 	str.w	r8, [sp]
  103ca8:	465b      	mov	r3, r11
  103caa:	4628      	mov	r0, r5
  103cac:	f00d fcd6 	bl	11165c <siprintf>
  103cb0:	2034      	movs	r0, #52	; 0x34
  103cb2:	941f      	str	r4, [sp, #124]	; 0x7c
  103cb4:	f009 fd34 	bl	10d720 <operator new(unsigned int)>
  103cb8:	f10d 0970 	add.w	r9, sp, #112	; 0x70
  103cbc:	497d      	ldr	r1, [pc, #500]	; (103eb4 <main+0xe84>)
  103cbe:	462b      	mov	r3, r5
  103cc0:	463a      	mov	r2, r7
  103cc2:	9401      	str	r4, [sp, #4]
  103cc4:	f8cd 9000 	str.w	r9, [sp]
  103cc8:	4680      	mov	r8, r0
  103cca:	f7fe ff8d 	bl	102be8 <HttpRequest::HttpRequest(NetworkInterface*, http_method, char const*, mbed::Callback<void (char const*, unsigned int)>, unsigned int)>
  103cce:	4648      	mov	r0, r9
  103cd0:	f7fe fd02 	bl	1026d8 <mbed::Callback<void (char const*, unsigned int)>::~Callback()>
  103cd4:	497c      	ldr	r1, [pc, #496]	; (103ec8 <main+0xe98>)
  103cd6:	e76f      	b.n	103bb8 <main+0xb88>
  103cd8:	4631      	mov	r1, r6
  103cda:	4872      	ldr	r0, [pc, #456]	; (103ea4 <main+0xe74>)
  103cdc:	f007 f962 	bl	10afa4 <gpio_write>
  103ce0:	9810      	ldr	r0, [sp, #64]	; 0x40
  103ce2:	702e      	strb	r6, [r5, #0]
  103ce4:	f00a fe04 	bl	10e8f0 <__aeabi_f2d>
  103ce8:	e9cd 0106 	strd	r0, r1, [sp, #24]
  103cec:	980f      	ldr	r0, [sp, #60]	; 0x3c
  103cee:	f00a fdff 	bl	10e8f0 <__aeabi_f2d>
  103cf2:	9b12      	ldr	r3, [sp, #72]	; 0x48
  103cf4:	e9cd 0104 	strd	r0, r1, [sp, #16]
  103cf8:	9302      	str	r3, [sp, #8]
  103cfa:	4b6b      	ldr	r3, [pc, #428]	; (103ea8 <main+0xe78>)
  103cfc:	4a6b      	ldr	r2, [pc, #428]	; (103eac <main+0xe7c>)
  103cfe:	681b      	ldr	r3, [r3, #0]
  103d00:	4972      	ldr	r1, [pc, #456]	; (103ecc <main+0xe9c>)
  103d02:	9301      	str	r3, [sp, #4]
  103d04:	f8cd 8000 	str.w	r8, [sp]
  103d08:	9b11      	ldr	r3, [sp, #68]	; 0x44
  103d0a:	4628      	mov	r0, r5
  103d0c:	f00d fca6 	bl	11165c <siprintf>
  103d10:	2034      	movs	r0, #52	; 0x34
  103d12:	961f      	str	r6, [sp, #124]	; 0x7c
  103d14:	f009 fd04 	bl	10d720 <operator new(unsigned int)>
  103d18:	f10d 0870 	add.w	r8, sp, #112	; 0x70
  103d1c:	4965      	ldr	r1, [pc, #404]	; (103eb4 <main+0xe84>)
  103d1e:	462b      	mov	r3, r5
  103d20:	463a      	mov	r2, r7
  103d22:	9601      	str	r6, [sp, #4]
  103d24:	f8cd 8000 	str.w	r8, [sp]
  103d28:	4604      	mov	r4, r0
  103d2a:	f7fe ff5d 	bl	102be8 <HttpRequest::HttpRequest(NetworkInterface*, http_method, char const*, mbed::Callback<void (char const*, unsigned int)>, unsigned int)>
  103d2e:	4640      	mov	r0, r8
  103d30:	f7fe fcd2 	bl	1026d8 <mbed::Callback<void (char const*, unsigned int)>::~Callback()>
  103d34:	4966      	ldr	r1, [pc, #408]	; (103ed0 <main+0xea0>)
  103d36:	4861      	ldr	r0, [pc, #388]	; (103ebc <main+0xe8c>)
  103d38:	f009 fe84 	bl	10da44 <mbed::Stream::printf(char const*, ...)>
  103d3c:	4960      	ldr	r1, [pc, #384]	; (103ec0 <main+0xe90>)
  103d3e:	e369      	b.n	104414 <main+0x13e4>
  103d40:	4631      	mov	r1, r6
  103d42:	4858      	ldr	r0, [pc, #352]	; (103ea4 <main+0xe74>)
  103d44:	f007 f92e 	bl	10afa4 <gpio_write>
  103d48:	9810      	ldr	r0, [sp, #64]	; 0x40
  103d4a:	702e      	strb	r6, [r5, #0]
  103d4c:	f00a fdd0 	bl	10e8f0 <__aeabi_f2d>
  103d50:	e9cd 0104 	strd	r0, r1, [sp, #16]
  103d54:	980f      	ldr	r0, [sp, #60]	; 0x3c
  103d56:	f00a fdcb 	bl	10e8f0 <__aeabi_f2d>
  103d5a:	e9cd 0102 	strd	r0, r1, [sp, #8]
  103d5e:	4b52      	ldr	r3, [pc, #328]	; (103ea8 <main+0xe78>)
  103d60:	4a52      	ldr	r2, [pc, #328]	; (103eac <main+0xe7c>)
  103d62:	681b      	ldr	r3, [r3, #0]
  103d64:	495b      	ldr	r1, [pc, #364]	; (103ed4 <main+0xea4>)
  103d66:	9300      	str	r3, [sp, #0]
  103d68:	4628      	mov	r0, r5
  103d6a:	4643      	mov	r3, r8
  103d6c:	f00d fc76 	bl	11165c <siprintf>
  103d70:	2034      	movs	r0, #52	; 0x34
  103d72:	961f      	str	r6, [sp, #124]	; 0x7c
  103d74:	f009 fcd4 	bl	10d720 <operator new(unsigned int)>
  103d78:	f10d 0970 	add.w	r9, sp, #112	; 0x70
  103d7c:	462b      	mov	r3, r5
  103d7e:	463a      	mov	r2, r7
  103d80:	494c      	ldr	r1, [pc, #304]	; (103eb4 <main+0xe84>)
  103d82:	9601      	str	r6, [sp, #4]
  103d84:	f8cd 9000 	str.w	r9, [sp]
  103d88:	4680      	mov	r8, r0
  103d8a:	f7fe ff2d 	bl	102be8 <HttpRequest::HttpRequest(NetworkInterface*, http_method, char const*, mbed::Callback<void (char const*, unsigned int)>, unsigned int)>
  103d8e:	4648      	mov	r0, r9
  103d90:	f7fe fca2 	bl	1026d8 <mbed::Callback<void (char const*, unsigned int)>::~Callback()>
  103d94:	4950      	ldr	r1, [pc, #320]	; (103ed8 <main+0xea8>)
  103d96:	4849      	ldr	r0, [pc, #292]	; (103ebc <main+0xe8c>)
  103d98:	f009 fe54 	bl	10da44 <mbed::Stream::printf(char const*, ...)>
  103d9c:	4948      	ldr	r1, [pc, #288]	; (103ec0 <main+0xe90>)
  103d9e:	e365      	b.n	10446c <main+0x143c>
  103da0:	f1ba 0f00 	cmp.w	r10, #0
  103da4:	f000 817f 	beq.w	1040a6 <main+0x1076>
  103da8:	f1b9 0f00 	cmp.w	r9, #0
  103dac:	f000 810f 	beq.w	103fce <main+0xf9e>
  103db0:	2e00      	cmp	r6, #0
  103db2:	f000 809d 	beq.w	103ef0 <main+0xec0>
  103db6:	2c00      	cmp	r4, #0
  103db8:	d040      	beq.n	103e3c <main+0xe0c>
  103dba:	9914      	ldr	r1, [sp, #80]	; 0x50
  103dbc:	4839      	ldr	r0, [pc, #228]	; (103ea4 <main+0xe74>)
  103dbe:	f007 f8f1 	bl	10afa4 <gpio_write>
  103dc2:	f89d 3050 	ldrb.w	r3, [sp, #80]	; 0x50
  103dc6:	9810      	ldr	r0, [sp, #64]	; 0x40
  103dc8:	702b      	strb	r3, [r5, #0]
  103dca:	f00a fd91 	bl	10e8f0 <__aeabi_f2d>
  103dce:	9b12      	ldr	r3, [sp, #72]	; 0x48
  103dd0:	e9cd 010a 	strd	r0, r1, [sp, #40]	; 0x28
  103dd4:	9308      	str	r3, [sp, #32]
  103dd6:	9b11      	ldr	r3, [sp, #68]	; 0x44
  103dd8:	f8cd b018 	str.w	r11, [sp, #24]
  103ddc:	9307      	str	r3, [sp, #28]
  103dde:	4b32      	ldr	r3, [pc, #200]	; (103ea8 <main+0xe78>)
  103de0:	980e      	ldr	r0, [sp, #56]	; 0x38
  103de2:	681b      	ldr	r3, [r3, #0]
  103de4:	f8cd 8010 	str.w	r8, [sp, #16]
  103de8:	9305      	str	r3, [sp, #20]
  103dea:	f00a fd81 	bl	10e8f0 <__aeabi_f2d>
  103dee:	e9cd 0102 	strd	r0, r1, [sp, #8]
  103df2:	9813      	ldr	r0, [sp, #76]	; 0x4c
  103df4:	f00a fd7c 	bl	10e8f0 <__aeabi_f2d>
  103df8:	4a2c      	ldr	r2, [pc, #176]	; (103eac <main+0xe7c>)
  103dfa:	e9cd 0100 	strd	r0, r1, [sp]
  103dfe:	4937      	ldr	r1, [pc, #220]	; (103edc <main+0xeac>)
  103e00:	4628      	mov	r0, r5
  103e02:	f00d fc2b 	bl	11165c <siprintf>
  103e06:	9b14      	ldr	r3, [sp, #80]	; 0x50
  103e08:	2034      	movs	r0, #52	; 0x34
  103e0a:	931f      	str	r3, [sp, #124]	; 0x7c
  103e0c:	f009 fc88 	bl	10d720 <operator new(unsigned int)>
  103e10:	9b14      	ldr	r3, [sp, #80]	; 0x50
  103e12:	f10d 0870 	add.w	r8, sp, #112	; 0x70
  103e16:	463a      	mov	r2, r7
  103e18:	4926      	ldr	r1, [pc, #152]	; (103eb4 <main+0xe84>)
  103e1a:	9301      	str	r3, [sp, #4]
  103e1c:	f8cd 8000 	str.w	r8, [sp]
  103e20:	462b      	mov	r3, r5
  103e22:	4604      	mov	r4, r0
  103e24:	f7fe fee0 	bl	102be8 <HttpRequest::HttpRequest(NetworkInterface*, http_method, char const*, mbed::Callback<void (char const*, unsigned int)>, unsigned int)>
  103e28:	4640      	mov	r0, r8
  103e2a:	f7fe fc55 	bl	1026d8 <mbed::Callback<void (char const*, unsigned int)>::~Callback()>
  103e2e:	492c      	ldr	r1, [pc, #176]	; (103ee0 <main+0xeb0>)
  103e30:	4822      	ldr	r0, [pc, #136]	; (103ebc <main+0xe8c>)
  103e32:	f009 fe07 	bl	10da44 <mbed::Stream::printf(char const*, ...)>
